; Listing generated by Microsoft (R) Optimizing Compiler Version 16.00.30319.01 

; Generated by VC++ for Common Language Runtime
.file "c:\projects\CelikNET\CelikNET\CelikNET.cpp"
.global	___@@_PchSym_@00@UkilqvxghUxvorpmvgUxvorpmvgUivovzhvUxvorpmvgOlyq@
	.bss
.local	___@@_PchSym_@00@UkilqvxghUxvorpmvgUxvorpmvgUivovzhvUxvorpmvgOlyq@,4
.global	?_EIDErrorCode@CelikException@CelikNET@@3HA	; CelikNET::CelikException::_EIDErrorCode
.global	
.global	
.global	
.local	?_EIDErrorCode@CelikException@CelikNET@@3HA,4	; CelikNET::CelikException::_EIDErrorCode
.local	,4
.local	,4
.local	,4
; Function compile flags: /Ogtp
	.text
	.comdat	any, ??0CelikException@CelikNET@@$$FQ$AAM@P$AAVString@System@@H@Z
.global	??0CelikException@CelikNET@@$$FQ$AAM@P$AAVString@System@@H@Z ; CelikNET::CelikException::CelikException
??0CelikException@CelikNET@@$$FQ$AAM@P$AAVString@System@@H@Z: ; CelikNET::CelikException::CelikException
;	.proc.def	D:V(PI)

; Function Header:
; max stack depth = 2
; function size = 15 bytes
; local varsig tk = 0x0 
; Exception Information:
; 0 handlers, each consisting of filtered handlers

;	.formal.mptr 1,"_message$" SIG: string
;	.formal.i4 2,"_ErrorCode$" SIG: i4
;	.formal.mptr 0,"_this$" SIG: Optional C Binding Modifier(token:0x4E9A3BD).class (token:0x4E9A3BF)

;	.proc.beg
; File c:\projects\celiknet\celiknet\celiknet.cpp
; Line 30
	ldarg.0				; _this$
	ldarg.2				; _ErrorCode$
	stfld		?_EIDErrorCode@CelikException@CelikNET@@3HA
	ldarg.0				; _this$
	ldarg.1				; _message$
	call		??0Exception@System@@$$FQ$AAM@P$AAVString@1@@Z
	ret		
 .end ??0CelikException@CelikNET@@$$FQ$AAM@P$AAVString@System@@H@Z ; CelikNET::CelikException::CelikException
;	.proc.end.void
; Function compile flags: /Ogtp
	.text
	.comdat	any, ?get@EIDErrorCode@CelikException@CelikNET@@$$FQ$AAMHXZ
.global	?get@EIDErrorCode@CelikException@CelikNET@@$$FQ$AAMHXZ ; CelikNET::CelikException::EIDErrorCode::get
?get@EIDErrorCode@CelikException@CelikNET@@$$FQ$AAMHXZ:	; CelikNET::CelikException::EIDErrorCode::get
;	.proc.def	D:I()

; Function Header:
; max stack depth = 1
; function size = 7 bytes
; local varsig tk = 0x0 
; Exception Information:
; 0 handlers, each consisting of filtered handlers

;	.formal.mptr 0,"_this$" SIG: Optional C Binding Modifier(token:0x4E9A3BD).class (token:0x4E9A3BF)

;	.proc.beg
; Line 31
	ldarg.0				; _this$
	ldfld		?_EIDErrorCode@CelikException@CelikNET@@3HA
	ret		
 .end ?get@EIDErrorCode@CelikException@CelikNET@@$$FQ$AAMHXZ ; CelikNET::CelikException::EIDErrorCode::get
;	.proc.end.i4
	.bss
.local	$StringLiteralTok$??_C@_1EK@HNCCBDB@?$AAU?$AAn?$AAk?$AAn?$AAo?$AAw?$AAn?$AA?5?$AAe?$AAr?$AAr?$AAo?$AAr?$AA?0?$AA?5?$AAc?$AAo?$AAn?$AAs?$AAu?$AAl?$AAt?$AA?5?$AAd?$AAo?$AAc?$AAu?$AAm?$AAe?$AAn?$AAt?$AAa@,4
.local	$StringLiteralTok$??_C@_1FA@KPOCDIHD@?$AAS?$AAe?$AAc?$AAu?$AAr?$AAi?$AAt?$AAy?$AA?5?$AAf?$AAo?$AAr?$AAm?$AAa?$AAt?$AA?5?$AAc?$AAh?$AAe?$AAc?$AAk?$AA?5?$AAc?$AAe?$AAr?$AAt?$AAi?$AAf?$AAi?$AAc?$AAa?$AAt@,4
.local	$StringLiteralTok$??_C@_1EC@MCBBPHDJ@?$AAC?$AAa?$AAr?$AAd?$AA?5?$AAs?$AAe?$AAc?$AAu?$AAr?$AAi?$AAt?$AAy?$AA?5?$AAf?$AAo?$AAr?$AAm?$AAa?$AAt?$AA?5?$AAc?$AAh?$AAe?$AAc?$AAk?$AA?5?$AAe?$AAr?$AAr?$AAo?$AAr@,4
.local	$StringLiteralTok$??_C@_1BK@EAFBACNO@?$AAD?$AAa?$AAt?$AAa?$AA?5?$AAm?$AAi?$AAs?$AAs?$AAi?$AAn?$AAg?$AA?$AA@,4
.local	$StringLiteralTok$??_C@_1CO@KKPDGLMP@?$AAU?$AAn?$AAa?$AAb?$AAl?$AAe?$AA?5?$AAt?$AAo?$AA?5?$AAo?$AAp?$AAe?$AAn?$AA?5?$AAs?$AAe?$AAs?$AAs?$AAi?$AAo?$AAn?$AA?$AA@,4
.local	$StringLiteralTok$??_C@_1BM@HAIOFBCA@?$AAC?$AAa?$AAr?$AAd?$AA?5?$AAm?$AAi?$AAs?$AAm?$AAa?$AAt?$AAc?$AAh?$AA?$AA@,4
.local	$StringLiteralTok$??_C@_1BK@HGOKHMHC@?$AAC?$AAa?$AAr?$AAd?$AA?5?$AAu?$AAn?$AAk?$AAn?$AAo?$AAw?$AAn?$AA?$AA@,4
.local	$StringLiteralTok$??_C@_1BK@MBOJPDGH@?$AAC?$AAa?$AAr?$AAd?$AA?5?$AAm?$AAi?$AAs?$AAs?$AAi?$AAn?$AAg?$AA?$AA@,4
.local	$StringLiteralTok$??_C@_1BK@CNNHENBD@?$AAR?$AAe?$AAa?$AAd?$AAe?$AAr?$AA?5?$AAe?$AAr?$AAr?$AAo?$AAr?$AA?$AA@,4
.local	$StringLiteralTok$??_C@_1CE@NFIGAOIH@?$AAU?$AAn?$AAa?$AAb?$AAl?$AAe?$AA?5?$AAt?$AAo?$AA?5?$AAe?$AAx?$AAe?$AAc?$AAu?$AAt?$AAe?$AA?$AA@,4
.local	$StringLiteralTok$??_C@_1CA@LHINCELJ@?$AAN?$AAo?$AAt?$AA?5?$AAi?$AAn?$AAi?$AAt?$AAi?$AAa?$AAl?$AAi?$AAz?$AAe?$AAd?$AA?$AA@,4
.local	$StringLiteralTok$??_C@_1CM@ODEBAEJJ@?$AAV?$AAe?$AAr?$AAs?$AAi?$AAo?$AAn?$AA?5?$AAn?$AAo?$AAt?$AA?5?$AAs?$AAu?$AAp?$AAp?$AAo?$AAr?$AAt?$AAe?$AAd?$AA?$AA@,4
.local	$StringLiteralTok$??_C@_1CE@EKGFFJHF@?$AAI?$AAn?$AAv?$AAa?$AAl?$AAi?$AAd?$AA?5?$AAp?$AAa?$AAr?$AAa?$AAm?$AAe?$AAt?$AAe?$AAr?$AA?$AA@,4
.local	$StringLiteralTok$??_C@_1BM@OJCDIPGB@?$AAG?$AAe?$AAn?$AAe?$AAr?$AAa?$AAl?$AA?5?$AAe?$AAr?$AAr?$AAo?$AAr?$AA?$AA@,4
.local	$StringLiteralTok$??_C@_1EA@FBLFCMOE@?$AAO?$AAp?$AAe?$AAr?$AAa?$AAt?$AAi?$AAo?$AAn?$AA?5?$AAc?$AAo?$AAm?$AAp?$AAl?$AAe?$AAt?$AAe?$AAd?$AA?5?$AAs?$AAu?$AAc?$AAc?$AAe?$AAs?$AAf?$AAu?$AAl?$AAl?$AAy?$AA?$AA@,4
; Function compile flags: /Ogtp
	.text
	.comdat	any, ?get@EIDErrorDescriptionEn@CelikException@CelikNET@@$$FQ$AAMP$AAVString@System@@XZ
.global	?get@EIDErrorDescriptionEn@CelikException@CelikNET@@$$FQ$AAMP$AAVString@System@@XZ ; CelikNET::CelikException::EIDErrorDescriptionEn::get
?get@EIDErrorDescriptionEn@CelikException@CelikNET@@$$FQ$AAMP$AAVString@System@@XZ: ; CelikNET::CelikException::EIDErrorDescriptionEn::get
;	.proc.def	D:P()

; Function Header:
; max stack depth = 2
; function size = 162 bytes
; local varsig tk = 0x0 
; Exception Information:
; 0 handlers, each consisting of filtered handlers

;	.formal.mptr 0,"_this$" SIG: Optional C Binding Modifier(token:0x4E9A3BD).class (token:0x4E9A3BF)

;	.proc.beg
; Line 35
	ldarg.0				; _this$
	call		?get@EIDErrorCode@CelikException@CelikNET@@$$FQ$AAMHXZ
	ldc.i4.s	13		; i32 0xd
	add		
	switch		14		; i32 0xe
	_case		$LN2@get
	_case		$LN3@get
	_case		$LN4@get
	_case		$LN5@get
	_case		$LN6@get
	_case		$LN7@get
	_case		$LN8@get
	_case		$LN9@get
	_case		$LN10@get
	_case		$LN11@get
	_case		$LN12@get
	_case		$LN13@get
	_case		$LN14@get
	_case		$LN15@get
	br.s		$LN1@get
$LN15@get:
; Line 37
	ldstr		$StringLiteralTok$??_C@_1EA@FBLFCMOE@?$AAO?$AAp?$AAe?$AAr?$AAa?$AAt?$AAi?$AAo?$AAn?$AA?5?$AAc?$AAo?$AAm?$AAp?$AAl?$AAe?$AAt?$AAe?$AAd?$AA?5?$AAs?$AAu?$AAc?$AAc?$AAe?$AAs?$AAf?$AAu?$AAl?$AAl?$AAy?$AA?$AA@
	ret		
$LN14@get:
; Line 38
	ldstr		$StringLiteralTok$??_C@_1BM@OJCDIPGB@?$AAG?$AAe?$AAn?$AAe?$AAr?$AAa?$AAl?$AA?5?$AAe?$AAr?$AAr?$AAo?$AAr?$AA?$AA@
	ret		
$LN13@get:
; Line 39
	ldstr		$StringLiteralTok$??_C@_1CE@EKGFFJHF@?$AAI?$AAn?$AAv?$AAa?$AAl?$AAi?$AAd?$AA?5?$AAp?$AAa?$AAr?$AAa?$AAm?$AAe?$AAt?$AAe?$AAr?$AA?$AA@
	ret		
$LN12@get:
; Line 40
	ldstr		$StringLiteralTok$??_C@_1CM@ODEBAEJJ@?$AAV?$AAe?$AAr?$AAs?$AAi?$AAo?$AAn?$AA?5?$AAn?$AAo?$AAt?$AA?5?$AAs?$AAu?$AAp?$AAp?$AAo?$AAr?$AAt?$AAe?$AAd?$AA?$AA@
	ret		
$LN11@get:
; Line 41
	ldstr		$StringLiteralTok$??_C@_1CA@LHINCELJ@?$AAN?$AAo?$AAt?$AA?5?$AAi?$AAn?$AAi?$AAt?$AAi?$AAa?$AAl?$AAi?$AAz?$AAe?$AAd?$AA?$AA@
	ret		
$LN10@get:
; Line 42
	ldstr		$StringLiteralTok$??_C@_1CE@NFIGAOIH@?$AAU?$AAn?$AAa?$AAb?$AAl?$AAe?$AA?5?$AAt?$AAo?$AA?5?$AAe?$AAx?$AAe?$AAc?$AAu?$AAt?$AAe?$AA?$AA@
	ret		
$LN9@get:
; Line 43
	ldstr		$StringLiteralTok$??_C@_1BK@CNNHENBD@?$AAR?$AAe?$AAa?$AAd?$AAe?$AAr?$AA?5?$AAe?$AAr?$AAr?$AAo?$AAr?$AA?$AA@
	ret		
$LN8@get:
; Line 44
	ldstr		$StringLiteralTok$??_C@_1BK@MBOJPDGH@?$AAC?$AAa?$AAr?$AAd?$AA?5?$AAm?$AAi?$AAs?$AAs?$AAi?$AAn?$AAg?$AA?$AA@
	ret		
$LN7@get:
; Line 45
	ldstr		$StringLiteralTok$??_C@_1BK@HGOKHMHC@?$AAC?$AAa?$AAr?$AAd?$AA?5?$AAu?$AAn?$AAk?$AAn?$AAo?$AAw?$AAn?$AA?$AA@
	ret		
$LN6@get:
; Line 46
	ldstr		$StringLiteralTok$??_C@_1BM@HAIOFBCA@?$AAC?$AAa?$AAr?$AAd?$AA?5?$AAm?$AAi?$AAs?$AAm?$AAa?$AAt?$AAc?$AAh?$AA?$AA@
	ret		
$LN5@get:
; Line 47
	ldstr		$StringLiteralTok$??_C@_1CO@KKPDGLMP@?$AAU?$AAn?$AAa?$AAb?$AAl?$AAe?$AA?5?$AAt?$AAo?$AA?5?$AAo?$AAp?$AAe?$AAn?$AA?5?$AAs?$AAe?$AAs?$AAs?$AAi?$AAo?$AAn?$AA?$AA@
	ret		
$LN4@get:
; Line 48
	ldstr		$StringLiteralTok$??_C@_1BK@EAFBACNO@?$AAD?$AAa?$AAt?$AAa?$AA?5?$AAm?$AAi?$AAs?$AAs?$AAi?$AAn?$AAg?$AA?$AA@
	ret		
$LN3@get:
; Line 49
	ldstr		$StringLiteralTok$??_C@_1EC@MCBBPHDJ@?$AAC?$AAa?$AAr?$AAd?$AA?5?$AAs?$AAe?$AAc?$AAu?$AAr?$AAi?$AAt?$AAy?$AA?5?$AAf?$AAo?$AAr?$AAm?$AAa?$AAt?$AA?5?$AAc?$AAh?$AAe?$AAc?$AAk?$AA?5?$AAe?$AAr?$AAr?$AAo?$AAr@
	ret		
$LN2@get:
; Line 50
	ldstr		$StringLiteralTok$??_C@_1FA@KPOCDIHD@?$AAS?$AAe?$AAc?$AAu?$AAr?$AAi?$AAt?$AAy?$AA?5?$AAf?$AAo?$AAr?$AAm?$AAa?$AAt?$AA?5?$AAc?$AAh?$AAe?$AAc?$AAk?$AA?5?$AAc?$AAe?$AAr?$AAt?$AAi?$AAf?$AAi?$AAc?$AAa?$AAt@
	ret		
$LN1@get:
; Line 51
	ldstr		$StringLiteralTok$??_C@_1EK@HNCCBDB@?$AAU?$AAn?$AAk?$AAn?$AAo?$AAw?$AAn?$AA?5?$AAe?$AAr?$AAr?$AAo?$AAr?$AA?0?$AA?5?$AAc?$AAo?$AAn?$AAs?$AAu?$AAl?$AAt?$AA?5?$AAd?$AAo?$AAc?$AAu?$AAm?$AAe?$AAn?$AAt?$AAa@
	ret		
 .end ?get@EIDErrorDescriptionEn@CelikException@CelikNET@@$$FQ$AAMP$AAVString@System@@XZ ; CelikNET::CelikException::EIDErrorDescriptionEn::get
;	.proc.end.mptr
	.bss
.local	$StringLiteralTok$??_C@_1FI@GADEILDC@?$AA?$DP?$AA?$DP?$AA?$DP?$AA?$DP?$AA?$DP?$AA?$DP?$AA?$DP?$AA?$DP?$AA?$DP?$AA?5?$AA?$DP?$AA?$DP?$AA?$DP?$AA?$DP?$AA?$DP?$AA?$DP?$AA?0?$AA?5?$AA?$DP?$AA?$DP?$AA?$DP?$AA?$DP?$AA?$DP?$AA?$DP?$AA?$DP?$AA?$DP?$AA?$DP?$AA?$DP?$AA?$DP?$AA?5?$AA?$DP?$AA?$DP@,4
.local	$StringLiteralTok$??_C@_1FE@NFFBAILA@?$AA?$DP?$AA?$DP?$AA?$DP?$AA?$DP?$AA?$DP?$AA?$DP?$AA?5?$AA?$DP?$AA?$DP?$AA?$DP?$AA?5?$AA?$DP?$AA?$DP?$AA?$DP?$AA?$DP?$AA?$DP?$AA?$DP?$AA?$DP?$AA?5?$AA?$DP?$AA?$DP?$AA?$DP?$AA?$DP?$AA?$DP?$AA?$DP?$AA?$DP?$AA?$DP?$AA?$DP?$AA?$DP?$AA?$DP?$AA?5?$AA?$DP@,4
.local	$StringLiteralTok$??_C@_1EI@IFNFFFCG@?$AA?$DP?$AA?$DP?$AA?$DP?$AA?$DP?$AA?$DP?$AA?$DP?$AA?$DP?$AA?$DP?$AA?$DP?$AA?$DP?$AA?5?$AA?$DP?$AA?$DP?$AA?$DP?$AA?$DP?$AA?$DP?$AA?$DP?$AA?5?$AA?$DP?$AA?5?$AA?$DP?$AA?$DP?$AA?$DP?$AA?$DP?$AA?$DP?$AA?$DP?$AA?$DP?$AA?5?$AA?$DP?$AA?$DP?$AA?$DP?$AA?$DP@,4
.local	$StringLiteralTok$??_C@_1EA@DNGFOJAH@?$AA?$DP?$AA?$DP?$AA?$DP?$AA?$DP?$AA?$DP?$AA?$DP?$AA?5?$AA?$DP?$AA?$DP?$AA?$DP?$AA?$DP?$AA?5?$AA?$DP?$AA?$DP?$AA?$DP?$AA?$DP?$AA?$DP?$AA?$DP?$AA?$DP?$AA?$DP?$AA?5?$AA?$DP?$AA?$DP?$AA?5?$AA?$DP?$AA?$DP?$AA?$DP?$AA?$DP?$AA?$DP?$AA?$DP?$AA?$DP?$AA?$AA@,4
.local	$StringLiteralTok$??_C@_1EI@EJACOOED@?$AA?$DP?$AA?$DP?$AA?$DP?$AA?$DP?$AA?$DP?$AA?$DP?$AA?$DP?$AA?$DP?$AA?$DP?$AA?$DP?$AA?5?$AA?$DP?$AA?$DP?$AA?5?$AA?$DP?$AA?$DP?$AA?$DP?$AA?$DP?$AA?5?$AA?$DP?$AA?$DP?$AA?5?$AA?$DP?$AA?$DP?$AA?$DP?$AA?$DP?$AA?$DP?$AA?$DP?$AA?5?$AA?$DP?$AA?$DP?$AA?$DP@,4
.local	$StringLiteralTok$??_C@_1DE@DDHKMNCN@?$AA?$DP?$AA?$DP?$AA?$DP?$AA?$DP?$AA?$DP?$AA?$DP?$AA?$DP?$AA?$DP?$AA?5?$AA?$DP?$AA?$DP?$AA?$DP?$AA?$DP?$AA?$DP?$AA?$DP?$AA?$DP?$AA?5?$AA?$DP?$AA?5?$AA?$DP?$AA?$DP?$AA?$DP?$AA?$DP?$AA?$DP?$AA?$DP?$AA?$AA@,4
.local	$StringLiteralTok$??_C@_1DG@ONEIBDHC@?$AA?$DP?$AA?$DP?$AA?$DP?$AA?$DP?$AA?$DP?$AA?$DP?$AA?$DP?$AA?$DP?$AA?$DP?$AA?5?$AA?$DP?$AA?$DP?$AA?$DP?$AA?$DP?$AA?$DP?$AA?$DP?$AA?$DP?$AA?5?$AA?$DP?$AA?5?$AA?$DP?$AA?$DP?$AA?$DP?$AA?$DP?$AA?$DP?$AA?$DP?$AA?$AA@,4
.local	$StringLiteralTok$??_C@_1DO@FAKFBLJ@?$AA?$DP?$AA?$DP?$AA?$DP?$AA?$DP?$AA?$DP?$AA?$DP?$AA?$DP?$AA?5?$AA?$DP?$AA?$DP?$AA?$DP?$AA?$DP?$AA?5?$AA?$DP?$AA?$DP?$AA?$DP?$AA?$DP?$AA?$DP?$AA?$DP?$AA?$DP?$AA?$DP?$AA?5?$AA?$DP?$AA?5?$AA?$DP?$AA?$DP?$AA?$DP?$AA?$DP?$AA?$DP?$AA?$DP?$AA?$AA@,4
.local	$StringLiteralTok$??_C@_1DA@IFPKHAHL@?$AA?$DP?$AA?$DP?$AA?$DP?$AA?$DP?$AA?$DP?$AA?$DP?$AA?5?$AA?$DP?$AA?5?$AA?$DP?$AA?$DP?$AA?$DP?$AA?$DP?$AA?$DP?$AA?$DP?$AA?5?$AA?$DP?$AA?$DP?$AA?$DP?$AA?$DP?$AA?$DP?$AA?$DP?$AA?$DP?$AA?$AA@,4
.local	$StringLiteralTok$??_C@_1EM@IGOBGEJF@?$AA?$DP?$AA?$DP?$AA?$DP?$AA?$DP?$AA?$DP?$AA?$DP?$AA?$DP?$AA?$DP?$AA?$DP?$AA?$DP?$AA?5?$AA?$DP?$AA?$DP?$AA?5?$AA?$DP?$AA?$DP?$AA?$DP?$AA?$DP?$AA?5?$AA?$DP?$AA?$DP?$AA?$DP?$AA?$DP?$AA?$DP?$AA?$DP?$AA?$DP?$AA?$DP?$AA?5?$AA?$DP?$AA?$DP?$AA?$DP?$AA?$DP@,4
.local	$StringLiteralTok$??_C@_1EA@BAGOKKAD@?$AA?$DP?$AA?$DP?$AA?$DP?$AA?$DP?$AA?$DP?$AA?$DP?$AA?$DP?$AA?$DP?$AA?$DP?$AA?$DP?$AA?5?$AA?$DP?$AA?$DP?$AA?$DP?$AA?$DP?$AA?5?$AA?$DP?$AA?$DP?$AA?$DP?$AA?$DP?$AA?$DP?$AA?$DP?$AA?$DP?$AA?$DP?$AA?$DP?$AA?$DP?$AA?$DP?$AA?$DP?$AA?$DP?$AA?$DP?$AA?$DP?$AA?$AA@,4
.local	$StringLiteralTok$??_C@_1EA@OFAOBIDG@?$AA?$DP?$AA?$DP?$AA?$DP?$AA?5?$AA?$DP?$AA?$DP?$AA?$DP?$AA?$DP?$AA?$DP?$AA?$DP?$AA?$DP?$AA?5?$AAA?$AAP?$AAI?$AA?9?$AAa?$AA?5?$AA?$DP?$AA?$DP?$AA?$DP?$AA?$DP?$AA?5?$AA?$DP?$AA?$DP?$AA?$DP?$AA?$DP?$AA?$DP?$AA?$DP?$AA?$DP?$AA?$DP?$AA?$AA@,4
.local	$StringLiteralTok$??_C@_1CK@NHFHFBIA@?$AA?$DP?$AA?$DP?$AA?$DP?$AA?$DP?$AA?$DP?$AA?$DP?$AA?$DP?$AA?$DP?$AA?$DP?$AA?$DP?$AA?5?$AA?$DP?$AA?$DP?$AA?$DP?$AA?$DP?$AA?$DP?$AA?$DP?$AA?$DP?$AA?$DP?$AA?$DP?$AA?$AA@,4
.local	$StringLiteralTok$??_C@_1BK@HAKKJKDM@?$AA?$DP?$AA?$DP?$AA?$DP?$AA?$DP?$AA?$DP?$AA?5?$AA?$DP?$AA?$DP?$AA?$DP?$AA?$DP?$AA?$DP?$AA?$DP?$AA?$AA@,4
.local	$StringLiteralTok$??_C@_1DG@IFIFEKNG@?$AA?$DP?$AA?$DP?$AA?$DP?$AA?$DP?$AA?$DP?$AA?$DP?$AA?$DP?$AA?$DP?$AA?$DP?$AA?5?$AA?$DP?$AA?$DP?$AA?$DP?$AA?$DP?$AA?$DP?$AA?$DP?$AA?$DP?$AA?5?$AA?$DP?$AA?$DP?$AA?$DP?$AA?$DP?$AA?$DP?$AA?$DP?$AA?$DP?$AA?$DP?$AA?$AA@,4
; Function compile flags: /Ogtp
	.text
	.comdat	any, ?get@EIDErrorDescriptionSr@CelikException@CelikNET@@$$FQ$AAMP$AAVString@System@@XZ
.global	?get@EIDErrorDescriptionSr@CelikException@CelikNET@@$$FQ$AAMP$AAVString@System@@XZ ; CelikNET::CelikException::EIDErrorDescriptionSr::get
?get@EIDErrorDescriptionSr@CelikException@CelikNET@@$$FQ$AAMP$AAVString@System@@XZ: ; CelikNET::CelikException::EIDErrorDescriptionSr::get
;	.proc.def	D:P()

; Function Header:
; max stack depth = 2
; function size = 162 bytes
; local varsig tk = 0x0 
; Exception Information:
; 0 handlers, each consisting of filtered handlers

;	.formal.mptr 0,"_this$" SIG: Optional C Binding Modifier(token:0x4E9A3BD).class (token:0x4E9A3BF)

;	.proc.beg
; Line 58
	ldarg.0				; _this$
	call		?get@EIDErrorCode@CelikException@CelikNET@@$$FQ$AAMHXZ
	ldc.i4.s	13		; i32 0xd
	add		
	switch		14		; i32 0xe
	_case		$LN2@get@2
	_case		$LN3@get@2
	_case		$LN4@get@2
	_case		$LN5@get@2
	_case		$LN6@get@2
	_case		$LN7@get@2
	_case		$LN8@get@2
	_case		$LN9@get@2
	_case		$LN10@get@2
	_case		$LN11@get@2
	_case		$LN12@get@2
	_case		$LN13@get@2
	_case		$LN14@get@2
	_case		$LN15@get@2
	br.s		$LN1@get@2
$LN15@get@2:
; Line 60
	ldstr		$StringLiteralTok$??_C@_1DG@IFIFEKNG@?$AA?$DP?$AA?$DP?$AA?$DP?$AA?$DP?$AA?$DP?$AA?$DP?$AA?$DP?$AA?$DP?$AA?$DP?$AA?5?$AA?$DP?$AA?$DP?$AA?$DP?$AA?$DP?$AA?$DP?$AA?$DP?$AA?$DP?$AA?5?$AA?$DP?$AA?$DP?$AA?$DP?$AA?$DP?$AA?$DP?$AA?$DP?$AA?$DP?$AA?$DP?$AA?$AA@
	ret		
$LN14@get@2:
; Line 61
	ldstr		$StringLiteralTok$??_C@_1BK@HAKKJKDM@?$AA?$DP?$AA?$DP?$AA?$DP?$AA?$DP?$AA?$DP?$AA?5?$AA?$DP?$AA?$DP?$AA?$DP?$AA?$DP?$AA?$DP?$AA?$DP?$AA?$AA@
	ret		
$LN13@get@2:
; Line 62
	ldstr		$StringLiteralTok$??_C@_1CK@NHFHFBIA@?$AA?$DP?$AA?$DP?$AA?$DP?$AA?$DP?$AA?$DP?$AA?$DP?$AA?$DP?$AA?$DP?$AA?$DP?$AA?$DP?$AA?5?$AA?$DP?$AA?$DP?$AA?$DP?$AA?$DP?$AA?$DP?$AA?$DP?$AA?$DP?$AA?$DP?$AA?$DP?$AA?$AA@
	ret		
$LN12@get@2:
; Line 63
	ldstr		$StringLiteralTok$??_C@_1EA@OFAOBIDG@?$AA?$DP?$AA?$DP?$AA?$DP?$AA?5?$AA?$DP?$AA?$DP?$AA?$DP?$AA?$DP?$AA?$DP?$AA?$DP?$AA?$DP?$AA?5?$AAA?$AAP?$AAI?$AA?9?$AAa?$AA?5?$AA?$DP?$AA?$DP?$AA?$DP?$AA?$DP?$AA?5?$AA?$DP?$AA?$DP?$AA?$DP?$AA?$DP?$AA?$DP?$AA?$DP?$AA?$DP?$AA?$DP?$AA?$AA@
	ret		
$LN11@get@2:
; Line 64
	ldstr		$StringLiteralTok$??_C@_1EA@BAGOKKAD@?$AA?$DP?$AA?$DP?$AA?$DP?$AA?$DP?$AA?$DP?$AA?$DP?$AA?$DP?$AA?$DP?$AA?$DP?$AA?$DP?$AA?5?$AA?$DP?$AA?$DP?$AA?$DP?$AA?$DP?$AA?5?$AA?$DP?$AA?$DP?$AA?$DP?$AA?$DP?$AA?$DP?$AA?$DP?$AA?$DP?$AA?$DP?$AA?$DP?$AA?$DP?$AA?$DP?$AA?$DP?$AA?$DP?$AA?$DP?$AA?$DP?$AA?$AA@
	ret		
$LN10@get@2:
; Line 65
	ldstr		$StringLiteralTok$??_C@_1EM@IGOBGEJF@?$AA?$DP?$AA?$DP?$AA?$DP?$AA?$DP?$AA?$DP?$AA?$DP?$AA?$DP?$AA?$DP?$AA?$DP?$AA?$DP?$AA?5?$AA?$DP?$AA?$DP?$AA?5?$AA?$DP?$AA?$DP?$AA?$DP?$AA?$DP?$AA?5?$AA?$DP?$AA?$DP?$AA?$DP?$AA?$DP?$AA?$DP?$AA?$DP?$AA?$DP?$AA?$DP?$AA?5?$AA?$DP?$AA?$DP?$AA?$DP?$AA?$DP@
	ret		
$LN9@get@2:
; Line 66
	ldstr		$StringLiteralTok$??_C@_1DA@IFPKHAHL@?$AA?$DP?$AA?$DP?$AA?$DP?$AA?$DP?$AA?$DP?$AA?$DP?$AA?5?$AA?$DP?$AA?5?$AA?$DP?$AA?$DP?$AA?$DP?$AA?$DP?$AA?$DP?$AA?$DP?$AA?5?$AA?$DP?$AA?$DP?$AA?$DP?$AA?$DP?$AA?$DP?$AA?$DP?$AA?$DP?$AA?$AA@
	ret		
$LN8@get@2:
; Line 67
	ldstr		$StringLiteralTok$??_C@_1DO@FAKFBLJ@?$AA?$DP?$AA?$DP?$AA?$DP?$AA?$DP?$AA?$DP?$AA?$DP?$AA?$DP?$AA?5?$AA?$DP?$AA?$DP?$AA?$DP?$AA?$DP?$AA?5?$AA?$DP?$AA?$DP?$AA?$DP?$AA?$DP?$AA?$DP?$AA?$DP?$AA?$DP?$AA?$DP?$AA?5?$AA?$DP?$AA?5?$AA?$DP?$AA?$DP?$AA?$DP?$AA?$DP?$AA?$DP?$AA?$DP?$AA?$AA@
	ret		
$LN7@get@2:
; Line 68
	ldstr		$StringLiteralTok$??_C@_1DG@ONEIBDHC@?$AA?$DP?$AA?$DP?$AA?$DP?$AA?$DP?$AA?$DP?$AA?$DP?$AA?$DP?$AA?$DP?$AA?$DP?$AA?5?$AA?$DP?$AA?$DP?$AA?$DP?$AA?$DP?$AA?$DP?$AA?$DP?$AA?$DP?$AA?5?$AA?$DP?$AA?5?$AA?$DP?$AA?$DP?$AA?$DP?$AA?$DP?$AA?$DP?$AA?$DP?$AA?$AA@
	ret		
$LN6@get@2:
; Line 69
	ldstr		$StringLiteralTok$??_C@_1DE@DDHKMNCN@?$AA?$DP?$AA?$DP?$AA?$DP?$AA?$DP?$AA?$DP?$AA?$DP?$AA?$DP?$AA?$DP?$AA?5?$AA?$DP?$AA?$DP?$AA?$DP?$AA?$DP?$AA?$DP?$AA?$DP?$AA?$DP?$AA?5?$AA?$DP?$AA?5?$AA?$DP?$AA?$DP?$AA?$DP?$AA?$DP?$AA?$DP?$AA?$DP?$AA?$AA@
	ret		
$LN5@get@2:
; Line 70
	ldstr		$StringLiteralTok$??_C@_1EI@EJACOOED@?$AA?$DP?$AA?$DP?$AA?$DP?$AA?$DP?$AA?$DP?$AA?$DP?$AA?$DP?$AA?$DP?$AA?$DP?$AA?$DP?$AA?5?$AA?$DP?$AA?$DP?$AA?5?$AA?$DP?$AA?$DP?$AA?$DP?$AA?$DP?$AA?5?$AA?$DP?$AA?$DP?$AA?5?$AA?$DP?$AA?$DP?$AA?$DP?$AA?$DP?$AA?$DP?$AA?$DP?$AA?5?$AA?$DP?$AA?$DP?$AA?$DP@
	ret		
$LN4@get@2:
; Line 71
	ldstr		$StringLiteralTok$??_C@_1EA@DNGFOJAH@?$AA?$DP?$AA?$DP?$AA?$DP?$AA?$DP?$AA?$DP?$AA?$DP?$AA?5?$AA?$DP?$AA?$DP?$AA?$DP?$AA?$DP?$AA?5?$AA?$DP?$AA?$DP?$AA?$DP?$AA?$DP?$AA?$DP?$AA?$DP?$AA?$DP?$AA?$DP?$AA?5?$AA?$DP?$AA?$DP?$AA?5?$AA?$DP?$AA?$DP?$AA?$DP?$AA?$DP?$AA?$DP?$AA?$DP?$AA?$DP?$AA?$AA@
	ret		
$LN3@get@2:
; Line 72
	ldstr		$StringLiteralTok$??_C@_1EI@IFNFFFCG@?$AA?$DP?$AA?$DP?$AA?$DP?$AA?$DP?$AA?$DP?$AA?$DP?$AA?$DP?$AA?$DP?$AA?$DP?$AA?$DP?$AA?5?$AA?$DP?$AA?$DP?$AA?$DP?$AA?$DP?$AA?$DP?$AA?$DP?$AA?5?$AA?$DP?$AA?5?$AA?$DP?$AA?$DP?$AA?$DP?$AA?$DP?$AA?$DP?$AA?$DP?$AA?$DP?$AA?5?$AA?$DP?$AA?$DP?$AA?$DP?$AA?$DP@
	ret		
$LN2@get@2:
; Line 73
	ldstr		$StringLiteralTok$??_C@_1FE@NFFBAILA@?$AA?$DP?$AA?$DP?$AA?$DP?$AA?$DP?$AA?$DP?$AA?$DP?$AA?5?$AA?$DP?$AA?$DP?$AA?$DP?$AA?5?$AA?$DP?$AA?$DP?$AA?$DP?$AA?$DP?$AA?$DP?$AA?$DP?$AA?$DP?$AA?5?$AA?$DP?$AA?$DP?$AA?$DP?$AA?$DP?$AA?$DP?$AA?$DP?$AA?$DP?$AA?$DP?$AA?$DP?$AA?$DP?$AA?$DP?$AA?5?$AA?$DP@
	ret		
$LN1@get@2:
; Line 74
	ldstr		$StringLiteralTok$??_C@_1FI@GADEILDC@?$AA?$DP?$AA?$DP?$AA?$DP?$AA?$DP?$AA?$DP?$AA?$DP?$AA?$DP?$AA?$DP?$AA?$DP?$AA?5?$AA?$DP?$AA?$DP?$AA?$DP?$AA?$DP?$AA?$DP?$AA?$DP?$AA?0?$AA?5?$AA?$DP?$AA?$DP?$AA?$DP?$AA?$DP?$AA?$DP?$AA?$DP?$AA?$DP?$AA?$DP?$AA?$DP?$AA?$DP?$AA?$DP?$AA?5?$AA?$DP?$AA?$DP@
	ret		
 .end ?get@EIDErrorDescriptionSr@CelikException@CelikNET@@$$FQ$AAMP$AAVString@System@@XZ ; CelikNET::CelikException::EIDErrorDescriptionSr::get
;	.proc.end.mptr
.global	
	.bss
.local	,4
; Function compile flags: /Ogtp
	.text
	.comdat	any, ??0DocumentData@CelikNET@@$$FQ$AAM@XZ
.global	??0DocumentData@CelikNET@@$$FQ$AAM@XZ		; CelikNET::DocumentData::DocumentData
??0DocumentData@CelikNET@@$$FQ$AAM@XZ:			; CelikNET::DocumentData::DocumentData
;	.proc.def	D:V()

; Function Header:
; max stack depth = 1
; function size = 7 bytes
; local varsig tk = 0x0 
; Exception Information:
; 0 handlers, each consisting of filtered handlers

;	.formal.mptr 0,"_this$" SIG: Optional C Binding Modifier(token:0x4EAD089).class (token:0x4EAD08B)

;	.proc.beg
	ldarg.0				; _this$
	call		??0Object@System@@$$FQ$AAM@XZ
	ret		
 .end ??0DocumentData@CelikNET@@$$FQ$AAM@XZ		; CelikNET::DocumentData::DocumentData
;	.proc.end.void
.global	
	.bss
.local	,4
; Function compile flags: /Ogtp
	.text
	.comdat	any, ??0FixedPersonalData@CelikNET@@$$FQ$AAM@XZ
.global	??0FixedPersonalData@CelikNET@@$$FQ$AAM@XZ	; CelikNET::FixedPersonalData::FixedPersonalData
??0FixedPersonalData@CelikNET@@$$FQ$AAM@XZ:		; CelikNET::FixedPersonalData::FixedPersonalData
;	.proc.def	D:V()

; Function Header:
; max stack depth = 1
; function size = 7 bytes
; local varsig tk = 0x0 
; Exception Information:
; 0 handlers, each consisting of filtered handlers

;	.formal.mptr 0,"_this$" SIG: Optional C Binding Modifier(token:0x7DD7D9).class (token:0x7DD7DB)

;	.proc.beg
	ldarg.0				; _this$
	call		??0Object@System@@$$FQ$AAM@XZ
	ret		
 .end ??0FixedPersonalData@CelikNET@@$$FQ$AAM@XZ	; CelikNET::FixedPersonalData::FixedPersonalData
;	.proc.end.void
.global	
	.bss
.local	,4
; Function compile flags: /Ogtp
	.text
	.comdat	any, ??0VariablePersonalData@CelikNET@@$$FQ$AAM@XZ
.global	??0VariablePersonalData@CelikNET@@$$FQ$AAM@XZ	; CelikNET::VariablePersonalData::VariablePersonalData
??0VariablePersonalData@CelikNET@@$$FQ$AAM@XZ:		; CelikNET::VariablePersonalData::VariablePersonalData
;	.proc.def	D:V()

; Function Header:
; max stack depth = 1
; function size = 7 bytes
; local varsig tk = 0x0 
; Exception Information:
; 0 handlers, each consisting of filtered handlers

;	.formal.mptr 0,"_this$" SIG: Optional C Binding Modifier(token:0x4E710D9).class (token:0x4E710DB)

;	.proc.beg
	ldarg.0				; _this$
	call		??0Object@System@@$$FQ$AAM@XZ
	ret		
 .end ??0VariablePersonalData@CelikNET@@$$FQ$AAM@XZ	; CelikNET::VariablePersonalData::VariablePersonalData
;	.proc.end.void
.global	?_instance@CelikInteropCleaner@CelikInterop@CelikNET@@2P$AAV123@$AA ; CelikNET::CelikInterop::CelikInteropCleaner::_instance
	.bss
.local	?_instance@CelikInteropCleaner@CelikInterop@CelikNET@@2P$AAV123@$AA,4 ; CelikNET::CelikInterop::CelikInteropCleaner::_instance
; Function compile flags: /Ogtp
	.text
	.comdat	any, ?get@singleton@CelikInteropCleaner@CelikInterop@CelikNET@@$$FSMP$AAV234@XZ
.global	?get@singleton@CelikInteropCleaner@CelikInterop@CelikNET@@$$FSMP$AAV234@XZ ; CelikNET::CelikInterop::CelikInteropCleaner::singleton::get
?get@singleton@CelikInteropCleaner@CelikInterop@CelikNET@@$$FSMP$AAV234@XZ: ; CelikNET::CelikInterop::CelikInteropCleaner::singleton::get
;	.proc.def	D:P()

; Function Header:
; max stack depth = 1
; function size = 6 bytes
; local varsig tk = 0x0 
; Exception Information:
; 0 handlers, each consisting of filtered handlers


;	.proc.beg
; Line 144
	ldsfld		?_instance@CelikInteropCleaner@CelikInterop@CelikNET@@2P$AAV123@$AA
	ret		
 .end ?get@singleton@CelikInteropCleaner@CelikInterop@CelikNET@@$$FSMP$AAV234@XZ ; CelikNET::CelikInterop::CelikInteropCleaner::singleton::get
;	.proc.end.mptr
.global	
	.bss
.local	,4
; Function compile flags: /Ogtp
	.text
	.comdat	any, ??0CelikInteropCleaner@CelikInterop@CelikNET@@$$FA$AAM@XZ
.global	??0CelikInteropCleaner@CelikInterop@CelikNET@@$$FA$AAM@XZ ; CelikNET::CelikInterop::CelikInteropCleaner::CelikInteropCleaner
??0CelikInteropCleaner@CelikInterop@CelikNET@@$$FA$AAM@XZ: ; CelikNET::CelikInterop::CelikInteropCleaner::CelikInteropCleaner
;	.proc.def	D:V()

; Function Header:
; max stack depth = 1
; function size = 7 bytes
; local varsig tk = 0x0 
; Exception Information:
; 0 handlers, each consisting of filtered handlers

;	.formal.mptr 0,"_this$" SIG: Optional C Binding Modifier(token:0x4E5D13D).class (token:0x4E5D13F)

;	.proc.beg
; Line 146
	ldarg.0				; _this$
	call		??0Object@System@@$$FQ$AAM@XZ
	ret		
 .end ??0CelikInteropCleaner@CelikInterop@CelikNET@@$$FA$AAM@XZ ; CelikNET::CelikInterop::CelikInteropCleaner::CelikInteropCleaner
;	.proc.end.void
	.bss
.local	$T75884,0
.local	$StringLiteralTok$??_C@_1CK@GHJBIGP@?$AAC?$AAl?$AAe?$AAa?$AAn?$AAu?$AAp?$AA?5?$AAn?$AAi?$AAj?$AAe?$AA?5?$AAi?$AAz?$AAv?$AAr?$AAs?$AAe?$AAn?$AA?$AA@,4
; Function compile flags: /Ogtp
	.text
	.comdat	any, ?<Finalizer>@CelikInteropCleaner@CelikInterop@CelikNET@@$$FA$AAMXXZ
.global	?<Finalizer>@CelikInteropCleaner@CelikInterop@CelikNET@@$$FA$AAMXXZ ; CelikNET::CelikInterop::CelikInteropCleaner::<Finalizer>
?<Finalizer>@CelikInteropCleaner@CelikInterop@CelikNET@@$$FA$AAMXXZ: ; CelikNET::CelikInterop::CelikInteropCleaner::<Finalizer>
;	.proc.def	D:V()

; Function Header:
; max stack depth = 2
; function size = 22 bytes
; local varsig tk = 0x11000008 
; Exception Information:
; 0 handlers, each consisting of filtered handlers

;	.local.i4 0,"_err$" SIG: i4

;	.proc.beg
; Line 152
	call		?EidCleanup@@$$J10YGHXZ
	stloc.0				; _err$
	ldloc.0				; _err$
	brfalse.s	$LN1@
	ldstr		$StringLiteralTok$??_C@_1CK@GHJBIGP@?$AAC?$AAl?$AAe?$AAa?$AAn?$AAu?$AAp?$AA?5?$AAn?$AAi?$AAj?$AAe?$AA?5?$AAi?$AAz?$AAv?$AAr?$AAs?$AAe?$AAn?$AA?$AA@
	ldloc.0				; _err$
	newobj		??0CelikException@CelikNET@@$$FQ$AAM@P$AAVString@System@@H@Z
	throw.u2	
$LN1@:
; Line 153
	ret		
 .end ?<Finalizer>@CelikInteropCleaner@CelikInterop@CelikNET@@$$FA$AAMXXZ ; CelikNET::CelikInterop::CelikInteropCleaner::<Finalizer>
;	.proc.end.void
.global	?_cleaner@CelikInterop@CelikNET@@0P$AAVCelikInteropCleaner@12@$AA ; CelikNET::CelikInterop::_cleaner
	.bss
.local	$T75888,0
.local	?_cleaner@CelikInterop@CelikNET@@0P$AAVCelikInteropCleaner@12@$AA,4 ; CelikNET::CelikInterop::_cleaner
.local	$StringLiteralTok$??_C@_1CK@NGBLCDNH@?$AAS?$AAt?$AAa?$AAr?$AAt?$AAu?$AAp?$AA?5?$AAn?$AAi?$AAj?$AAe?$AA?5?$AAi?$AAz?$AAv?$AAr?$AAs?$AAe?$AAn?$AA?$AA@,4
; Function compile flags: /Ogtp
	.text
	.comdat	any, ?.cctor@CelikInterop@CelikNET@@$$FCMXXZ
.global	?.cctor@CelikInterop@CelikNET@@$$FCMXXZ		; ?.cctor@CelikInterop@CelikNET@@$$FCMXXZ
?.cctor@CelikInterop@CelikNET@@$$FCMXXZ:		; ?.cctor@CelikInterop@CelikNET@@$$FCMXXZ
;	.proc.def	D:V()

; Function Header:
; max stack depth = 2
; function size = 33 bytes
; local varsig tk = 0x11000008 
; Exception Information:
; 0 handlers, each consisting of filtered handlers

;	.local.i4 0,"_err$" SIG: i4

;	.proc.beg
; Line 164
	ldc.i.1		1		; i32 0x1
	call		?EidStartup@@$$J14YGHH@Z
	stloc.0				; _err$
	ldloc.0				; _err$
	brfalse.s	$LN1@
	ldstr		$StringLiteralTok$??_C@_1CK@NGBLCDNH@?$AAS?$AAt?$AAa?$AAr?$AAt?$AAu?$AAp?$AA?5?$AAn?$AAi?$AAj?$AAe?$AA?5?$AAi?$AAz?$AAv?$AAr?$AAs?$AAe?$AAn?$AA?$AA@
	ldloc.0				; _err$
	newobj		??0CelikException@CelikNET@@$$FQ$AAM@P$AAVString@System@@H@Z
	throw.u2	
$LN1@:
; Line 166
	call		?get@singleton@CelikInteropCleaner@CelikInterop@CelikNET@@$$FSMP$AAV234@XZ
	stsfld		?_cleaner@CelikInterop@CelikNET@@0P$AAVCelikInteropCleaner@12@$AA
; Line 167
	ret		
 .end ?.cctor@CelikInterop@CelikNET@@$$FCMXXZ		; ?.cctor@CelikInterop@CelikNET@@$$FCMXXZ
;	.proc.end.void
	.bss
.local	$T75893,0
; Function compile flags: /Ogtp
	.text
	.comdat	any, ?Cleanup@CelikInterop@CelikNET@@$$FSMXXZ
.global	?Cleanup@CelikInterop@CelikNET@@$$FSMXXZ	; CelikNET::CelikInterop::Cleanup
?Cleanup@CelikInterop@CelikNET@@$$FSMXXZ:		; CelikNET::CelikInterop::Cleanup
;	.proc.def	D:V()

; Function Header:
; max stack depth = 1
; function size = 16 bytes
; local varsig tk = 0x11000009 
; Exception Information:
; 0 handlers, each consisting of filtered handlers

;	.local.mptr 0,"$T74846" SIG: class (token:0x4E74AA5)

;	.proc.beg
; Line 178
	ldsfld		?_cleaner@CelikInterop@CelikNET@@0P$AAVCelikInteropCleaner@12@$AA
	stloc.0				; $T74846
	ldloc.0				; $T74846
	brfalse.s	$LN3@Cleanup
	ldloc.0				; $T74846
	callvirt	?<Dispose>@IDisposable@System@@$$FU$AAMXXZ
$LN3@Cleanup:
; Line 179
	ret		
 .end ?Cleanup@CelikInterop@CelikNET@@$$FSMXXZ		; CelikNET::CelikInterop::Cleanup
;	.proc.end.void
.global	??_C@_00CNPNBAHC@?$AA@				; `string'
.global	
	.bss
.local	$T75898,0
.local	$StringLiteralTok$??_C@_1CO@NCDJPPPG@?$AAB?$AAe?$AAg?$AAi?$AAn?$AAR?$AAe?$AAa?$AAd?$AA?5?$AAn?$AAi?$AAj?$AAe?$AA?5?$AAi?$AAz?$AAv?$AAr?$AAs?$AAe?$AAn?$AA?$AA@,4
.local	,4
	.rdata
	.comdat	any, ??_C@_00CNPNBAHC@?$AA@

??_C@_00CNPNBAHC@?$AA@:					; `string'
	.ascii	"\000"
; Function compile flags: /Ogtp
	.text
	.comdat	any, ??0CelikInterop@CelikNET@@$$FQ$AAM@XZ
.global	??0CelikInterop@CelikNET@@$$FQ$AAM@XZ		; CelikNET::CelikInterop::CelikInterop
??0CelikInterop@CelikNET@@$$FQ$AAM@XZ:			; CelikNET::CelikInterop::CelikInterop
;	.proc.def	D:V()

; Function Header:
; max stack depth = 2
; function size = 33 bytes
; local varsig tk = 0x11000008 
; Exception Information:
; 0 handlers, each consisting of filtered handlers

;	.formal.mptr 0,"_this$" SIG: Optional C Binding Modifier(token:0x4E2909D).class (token:0x4E2909F)
;	.local.i4 0,"_err$" SIG: i4

;	.proc.beg
; Line 185
	ldarg.0				; _this$
	call		??0Object@System@@$$FQ$AAM@XZ
; Line 188
	ldsflda		??_C@_00CNPNBAHC@?$AA@
	call		?EidBeginRead@@$$J14YGHPBD@Z
	stloc.0				; _err$
	ldloc.0				; _err$
	brfalse.s	$LN1@CelikInter
	ldstr		$StringLiteralTok$??_C@_1CO@NCDJPPPG@?$AAB?$AAe?$AAg?$AAi?$AAn?$AAR?$AAe?$AAa?$AAd?$AA?5?$AAn?$AAi?$AAj?$AAe?$AA?5?$AAi?$AAz?$AAv?$AAr?$AAs?$AAe?$AAn?$AA?$AA@
	ldloc.0				; _err$
	newobj		??0CelikException@CelikNET@@$$FQ$AAM@P$AAVString@System@@H@Z
	throw.u2	
$LN1@CelikInter:
; Line 189
	ret		
 .end ??0CelikInterop@CelikNET@@$$FQ$AAM@XZ		; CelikNET::CelikInterop::CelikInterop
;	.proc.end.void
.global	
.global	
	.bss
.local	$T75903,0
.local	$TypeTok$117211C8$,4
.local	,4
.local	,4
; Function compile flags: /Ogtp
	.text
	.comdat	any, ?decodeUTF8Buffer@CelikInterop@CelikNET@@$$FA$AAMP$AAVString@System@@PADH@Z
.global	?decodeUTF8Buffer@CelikInterop@CelikNET@@$$FA$AAMP$AAVString@System@@PADH@Z ; CelikNET::CelikInterop::decodeUTF8Buffer
?decodeUTF8Buffer@CelikInterop@CelikNET@@$$FA$AAMP$AAVString@System@@PADH@Z: ; CelikNET::CelikInterop::decodeUTF8Buffer
;	.proc.def	D:P(II)

; Function Header:
; max stack depth = 4
; function size = 35 bytes
; local varsig tk = 0x1100000D 
; Exception Information:
; 0 handlers, each consisting of filtered handlers

;	.formal.i4 1,"_buffer$" SIG: ptr.Optional C Binding Modifier(token:0x4EC67CA).i1
;	.formal.i4 2,"_length$" SIG: i4
;	.local.mptr 0,"_managedArray$" SIG: szarray (token:0x4ED238D)

;	.proc.beg
; Line 289
	ldarg.2				; _length$
	newarr		$TypeTok$117211C8$
	stloc.0				; _managedArray$
; Line 290
	ldarg.1				; _buffer$
	call		??BIntPtr@System@@$$FSM?AV01@PAX@Z
	ldloc.0				; _managedArray$
	ldc.i.0		0		; i32 0x0
	ldarg.2				; _length$
	call		?Copy@Marshal@InteropServices@Runtime@System@@$$FSMXVIntPtr@4@P$01AEHH@Z
; Line 291
	call		?get@UTF8@Encoding@Text@System@@$$FSMP$AAV234@XZ
	ldloc.0				; _managedArray$
	ldc.i.0		0		; i32 0x0
	ldarg.2				; _length$
	callvirt	?GetString@Encoding@Text@System@@$$FU$AAMP$AAVString@3@P$01AEHH@Z
	ret		
 .end ?decodeUTF8Buffer@CelikInterop@CelikNET@@$$FA$AAMP$AAVString@System@@PADH@Z ; CelikNET::CelikInterop::decodeUTF8Buffer
;	.proc.end.mptr
	.bss
.local	$T75907,0
; Function compile flags: /Ogtp
	.text
	.comdat	any, ?startRead@CelikInterop@CelikNET@@$$FA$AAMXXZ
.global	?startRead@CelikInterop@CelikNET@@$$FA$AAMXXZ	; CelikNET::CelikInterop::startRead
?startRead@CelikInterop@CelikNET@@$$FA$AAMXXZ:		; CelikNET::CelikInterop::startRead
;	.proc.def	D:V()

; Function Header:
; max stack depth = 2
; function size = 27 bytes
; local varsig tk = 0x11000008 
; Exception Information:
; 0 handlers, each consisting of filtered handlers

;	.local.i4 0,"_err$" SIG: i4

;	.proc.beg
; Line 297
	ldsflda		??_C@_00CNPNBAHC@?$AA@
	call		?EidBeginRead@@$$J14YGHPBD@Z
	stloc.0				; _err$
	ldloc.0				; _err$
	brfalse.s	$LN1@startRead
	ldstr		$StringLiteralTok$??_C@_1CO@NCDJPPPG@?$AAB?$AAe?$AAg?$AAi?$AAn?$AAR?$AAe?$AAa?$AAd?$AA?5?$AAn?$AAi?$AAj?$AAe?$AA?5?$AAi?$AAz?$AAv?$AAr?$AAs?$AAe?$AAn?$AA?$AA@
	ldloc.0				; _err$
	newobj		??0CelikException@CelikNET@@$$FQ$AAM@P$AAVString@System@@H@Z
	throw.u2	
$LN1@startRead:
; Line 298
	ret		
 .end ?startRead@CelikInterop@CelikNET@@$$FA$AAMXXZ	; CelikNET::CelikInterop::startRead
;	.proc.end.void
	.bss
.local	$T75911,0
.local	$StringLiteralTok$??_C@_1CK@JNHFLCLF@?$AAE?$AAn?$AAd?$AAR?$AAe?$AAa?$AAd?$AA?5?$AAn?$AAi?$AAj?$AAe?$AA?5?$AAi?$AAz?$AAv?$AAr?$AAs?$AAe?$AAn?$AA?$AA@,4
; Function compile flags: /Ogtp
	.text
	.comdat	any, ?endRead@CelikInterop@CelikNET@@$$FA$AAMXXZ
.global	?endRead@CelikInterop@CelikNET@@$$FA$AAMXXZ	; CelikNET::CelikInterop::endRead
?endRead@CelikInterop@CelikNET@@$$FA$AAMXXZ:		; CelikNET::CelikInterop::endRead
;	.proc.def	D:V()

; Function Header:
; max stack depth = 2
; function size = 22 bytes
; local varsig tk = 0x11000008 
; Exception Information:
; 0 handlers, each consisting of filtered handlers

;	.local.i4 0,"_err$" SIG: i4

;	.proc.beg
; Line 302
	call		?EidEndRead@@$$J10YGHXZ
	stloc.0				; _err$
	ldloc.0				; _err$
	brfalse.s	$LN1@endRead
	ldstr		$StringLiteralTok$??_C@_1CK@JNHFLCLF@?$AAE?$AAn?$AAd?$AAR?$AAe?$AAa?$AAd?$AA?5?$AAn?$AAi?$AAj?$AAe?$AA?5?$AAi?$AAz?$AAv?$AAr?$AAs?$AAe?$AAn?$AA?$AA@
	ldloc.0				; _err$
	newobj		??0CelikException@CelikNET@@$$FQ$AAM@P$AAVString@System@@H@Z
	throw.u2	
$LN1@endRead:
; Line 303
	ret		
 .end ?endRead@CelikInterop@CelikNET@@$$FA$AAMXXZ	; CelikNET::CelikInterop::endRead
;	.proc.end.void
	.bss
.local	$T75915,0
; Function compile flags: /Ogtp
	.text
	.comdat	any, ?<Finalizer>@CelikInterop@CelikNET@@$$FA$AAMXXZ
.global	?<Finalizer>@CelikInterop@CelikNET@@$$FA$AAMXXZ	; CelikNET::CelikInterop::<Finalizer>
?<Finalizer>@CelikInterop@CelikNET@@$$FA$AAMXXZ:	; CelikNET::CelikInterop::<Finalizer>
;	.proc.def	D:V()

; Function Header:
; max stack depth = 2
; function size = 22 bytes
; local varsig tk = 0x11000008 
; Exception Information:
; 0 handlers, each consisting of filtered handlers

;	.local.i4 0,"_err$" SIG: i4

;	.proc.beg
; Line 310
	call		?EidEndRead@@$$J10YGHXZ
	stloc.0				; _err$
	ldloc.0				; _err$
	brfalse.s	$LN1@
	ldstr		$StringLiteralTok$??_C@_1CK@JNHFLCLF@?$AAE?$AAn?$AAd?$AAR?$AAe?$AAa?$AAd?$AA?5?$AAn?$AAi?$AAj?$AAe?$AA?5?$AAi?$AAz?$AAv?$AAr?$AAs?$AAe?$AAn?$AA?$AA@
	ldloc.0				; _err$
	newobj		??0CelikException@CelikNET@@$$FQ$AAM@P$AAVString@System@@H@Z
	throw.u2	
$LN1@:
; Line 311
	ret		
 .end ?<Finalizer>@CelikInterop@CelikNET@@$$FA$AAMXXZ	; CelikNET::CelikInterop::<Finalizer>
;	.proc.end.void
; Function compile flags: /Ogtp
	.text
	.comdat	any, ?.cctor@CelikInteropCleaner@CelikInterop@CelikNET@@$$FSMXXZ
.global	?.cctor@CelikInteropCleaner@CelikInterop@CelikNET@@$$FSMXXZ ; ?.cctor@CelikInteropCleaner@CelikInterop@CelikNET@@$$FSMXXZ
?.cctor@CelikInteropCleaner@CelikInterop@CelikNET@@$$FSMXXZ: ; ?.cctor@CelikInteropCleaner@CelikInterop@CelikNET@@$$FSMXXZ
;	.proc.def	D:V()

; Function Header:
; max stack depth = 1
; function size = 11 bytes
; local varsig tk = 0x0 
; Exception Information:
; 0 handlers, each consisting of filtered handlers


;	.proc.beg
	newobj		??0CelikInteropCleaner@CelikInterop@CelikNET@@$$FA$AAM@XZ
	stsfld		?_instance@CelikInteropCleaner@CelikInterop@CelikNET@@2P$AAV123@$AA
	ret		
 .end ?.cctor@CelikInteropCleaner@CelikInterop@CelikNET@@$$FSMXXZ ; ?.cctor@CelikInteropCleaner@CelikInterop@CelikNET@@$$FSMXXZ
;	.proc.end.void
.global	?dummy_string@dummy_struct@_detail_class@msclr@@2P$AAVString@System@@$AA ; msclr::_detail_class::dummy_struct::dummy_string
	.bss
.local	?dummy_string@dummy_struct@_detail_class@msclr@@2P$AAVString@System@@$AA,4 ; msclr::_detail_class::dummy_struct::dummy_string
.local	$StringLiteralTok$??_C@_11LOCGONAA@?$AA?$AA@,4
; Function compile flags: /Ogtp
	.text
	.comdat	any, ?.cctor@dummy_struct@_detail_class@msclr@@$$FSMXXZ
.global	?.cctor@dummy_struct@_detail_class@msclr@@$$FSMXXZ ; ?.cctor@dummy_struct@_detail_class@msclr@@$$FSMXXZ
?.cctor@dummy_struct@_detail_class@msclr@@$$FSMXXZ:	; ?.cctor@dummy_struct@_detail_class@msclr@@$$FSMXXZ
;	.proc.def	D:V()

; Function Header:
; max stack depth = 1
; function size = 11 bytes
; local varsig tk = 0x0 
; Exception Information:
; 0 handlers, each consisting of filtered handlers


;	.proc.beg
	ldstr		$StringLiteralTok$??_C@_11LOCGONAA@?$AA?$AA@
	stsfld		?dummy_string@dummy_struct@_detail_class@msclr@@2P$AAVString@System@@$AA
	ret		
 .end ?.cctor@dummy_struct@_detail_class@msclr@@$$FSMXXZ ; ?.cctor@dummy_struct@_detail_class@msclr@@$$FSMXXZ
;	.proc.end.void
.global	?_safe_false@_detail_class@msclr@@2Q$AAVString@System@@$AA ; msclr::_detail_class::_safe_false
.global	?_safe_true@_detail_class@msclr@@2Q$AAVString@System@@$AA ; msclr::_detail_class::_safe_true
	.bss
.local	?_safe_false@_detail_class@msclr@@2Q$AAVString@System@@$AA,4 ; msclr::_detail_class::_safe_false
.local	?_safe_true@_detail_class@msclr@@2Q$AAVString@System@@$AA,4 ; msclr::_detail_class::_safe_true
; Function compile flags: /Ogtp
	.text
	.comdat	any, ?.cctor@_detail_class@msclr@@$$FSMXXZ
.global	?.cctor@_detail_class@msclr@@$$FSMXXZ		; ?.cctor@_detail_class@msclr@@$$FSMXXZ
?.cctor@_detail_class@msclr@@$$FSMXXZ:			; ?.cctor@_detail_class@msclr@@$$FSMXXZ
;	.proc.def	D:V()

; Function Header:
; max stack depth = 1
; function size = 17 bytes
; local varsig tk = 0x0 
; Exception Information:
; 0 handlers, each consisting of filtered handlers


;	.proc.beg
	ldsfld		?dummy_string@dummy_struct@_detail_class@msclr@@2P$AAVString@System@@$AA
	stsfld		?_safe_true@_detail_class@msclr@@2Q$AAVString@System@@$AA
	ldnull		0		; i32 0x0
	stsfld		?_safe_false@_detail_class@msclr@@2Q$AAVString@System@@$AA
	ret		
 .end ?.cctor@_detail_class@msclr@@$$FSMXXZ		; ?.cctor@_detail_class@msclr@@$$FSMXXZ
;	.proc.end.void
.global	?m_locked@lock@msclr@@3_NA			; msclr::lock::m_locked
.global	
	.bss
.local	?m_locked@lock@msclr@@3_NA,1			; msclr::lock::m_locked
	.align	2
.local	,4
; Function compile flags: /Ogtp
	.text
	.comdat	any, ?is_locked@lock@msclr@@$$FQ$AAM_NXZ
.global	?is_locked@lock@msclr@@$$FQ$AAM_NXZ		; msclr::lock::is_locked
?is_locked@lock@msclr@@$$FQ$AAM_NXZ:			; msclr::lock::is_locked
;	.proc.def	D:I()

; Function Header:
; max stack depth = 1
; function size = 7 bytes
; local varsig tk = 0x0 
; Exception Information:
; 0 handlers, each consisting of filtered handlers

;	.formal.mptr 0,"_this$" SIG: Optional C Binding Modifier(token:0x4FBF1D1).class (token:0x4FBF1D3)

;	.proc.beg
; File c:\program files (x86)\microsoft visual studio 10.0\vc\include\msclr\lock.h
; Line 142
	ldarg.0				; _this$
	ldfld		?m_locked@lock@msclr@@3_NA
	ret		
 .end ?is_locked@lock@msclr@@$$FQ$AAM_NXZ		; msclr::lock::is_locked
;	.proc.end.u1
; Function compile flags: /Ogtp
	.text
	.comdat	any, ??Block@msclr@@$$FQ$AAMP$AAVString@System@@XZ
.global	??Block@msclr@@$$FQ$AAMP$AAVString@System@@XZ	; msclr::lock::operator System::String ^
??Block@msclr@@$$FQ$AAMP$AAVString@System@@XZ:		; msclr::lock::operator System::String ^
;	.proc.def	D:P()

; Function Header:
; max stack depth = 1
; function size = 21 bytes
; local varsig tk = 0x0 
; Exception Information:
; 0 handlers, each consisting of filtered handlers

;	.formal.mptr 0,"_this$" SIG: Optional C Binding Modifier(token:0x4FBF1D1).class (token:0x4FBF1D3)

;	.proc.beg
; Line 148
	ldarg.0				; _this$
	ldfld		?m_locked@lock@msclr@@3_NA
	brfalse.s	$LN3@String
	ldsfld		?_safe_true@_detail_class@msclr@@2Q$AAVString@System@@$AA
	br.s		$LN4@String
$LN3@String:
	ldsfld		?_safe_false@_detail_class@msclr@@2Q$AAVString@System@@$AA
$LN4@String:
	ret		
 .end ??Block@msclr@@$$FQ$AAMP$AAVString@System@@XZ	; msclr::lock::operator System::String ^
;	.proc.end.mptr
.global	?m_object@lock@msclr@@3P$AAVObject@System@@$AA	; msclr::lock::m_object
	.bss
.local	?m_object@lock@msclr@@3P$AAVObject@System@@$AA,4 ; msclr::lock::m_object
; Function compile flags: /Ogtp
	.text
	.comdat	any, ?acquire@lock@msclr@@$$FQ$AAMXH@Z
.global	?acquire@lock@msclr@@$$FQ$AAMXH@Z		; msclr::lock::acquire
?acquire@lock@msclr@@$$FQ$AAMXH@Z:			; msclr::lock::acquire
;	.proc.def	D:V(I)

; Function Header:
; max stack depth = 3
; function size = 46 bytes
; local varsig tk = 0x0 
; Exception Information:
; 0 handlers, each consisting of filtered handlers

;	.formal.i4 1,"__timeout$" SIG: i4
;	.formal.mptr 0,"_this$" SIG: Optional C Binding Modifier(token:0x4FBF1D1).class (token:0x4FBF1D3)

;	.proc.beg
; Line 172
	ldarg.0				; _this$
	ldfld		?m_locked@lock@msclr@@3_NA
	brtrue.s	$LN1@acquire
; Line 174
	ldarg.0				; _this$
	ldfld		?m_object@lock@msclr@@3P$AAVObject@System@@$AA
	ldarg.1				; __timeout$
	ldarg.0				; _this$
	ldflda		?m_locked@lock@msclr@@3_NA
	call		?TryEnter@Monitor@Threading@System@@$$FSMXP$AAVObject@3@HA$CA_N@Z
; Line 175
	ldarg.0				; _this$
	ldfld		?m_locked@lock@msclr@@3_NA
	brtrue.s	$LN1@acquire
; Line 178
	ldc.i4		-2147024638	; i32 0x80070102
	call		?GetExceptionForHR@Marshal@InteropServices@Runtime@System@@$$FSMP$AAVException@4@H@Z
	throw.u2	
$LN1@acquire:
; Line 181
	ret		
 .end ?acquire@lock@msclr@@$$FQ$AAMXH@Z			; msclr::lock::acquire
;	.proc.end.void
; Function compile flags: /Ogtp
	.text
	.comdat	any, ?acquire@lock@msclr@@$$FQ$AAMXXZ
.global	?acquire@lock@msclr@@$$FQ$AAMXXZ		; msclr::lock::acquire
?acquire@lock@msclr@@$$FQ$AAMXXZ:			; msclr::lock::acquire
;	.proc.def	D:V()

; Function Header:
; max stack depth = 3
; function size = 46 bytes
; local varsig tk = 0x0 
; Exception Information:
; 0 handlers, each consisting of filtered handlers

;	.formal.mptr 0,"_this$" SIG: Optional C Binding Modifier(token:0x4FBF1D1).class (token:0x4FBF1D3)

;	.proc.beg
; Line 185
	ldarg.0				; _this$
	ldfld		?m_locked@lock@msclr@@3_NA
	brtrue.s	$LN1@acquire@2
; Line 188
	ldarg.0				; _this$
	ldfld		?m_object@lock@msclr@@3P$AAVObject@System@@$AA
	ldc.i.-1	-1		; i32 0xffffffff
	ldarg.0				; _this$
	ldflda		?m_locked@lock@msclr@@3_NA
	call		?TryEnter@Monitor@Threading@System@@$$FSMXP$AAVObject@3@HA$CA_N@Z
; Line 189
	ldarg.0				; _this$
	ldfld		?m_locked@lock@msclr@@3_NA
	brtrue.s	$LN1@acquire@2
; Line 192
	ldc.i4		-2147024638	; i32 0x80070102
	call		?GetExceptionForHR@Marshal@InteropServices@Runtime@System@@$$FSMP$AAVException@4@H@Z
	throw.u2	
$LN1@acquire@2:
; Line 195
	ret		
 .end ?acquire@lock@msclr@@$$FQ$AAMXXZ			; msclr::lock::acquire
;	.proc.end.void
.global	
	.bss
.local	,4
; Function compile flags: /Ogtp
	.text
	.comdat	any, ?acquire@lock@msclr@@$$FQ$AAMXVTimeSpan@System@@@Z
.global	?acquire@lock@msclr@@$$FQ$AAMXVTimeSpan@System@@@Z ; msclr::lock::acquire
?acquire@lock@msclr@@$$FQ$AAMXVTimeSpan@System@@@Z:	; msclr::lock::acquire
;	.proc.def	D:V(M<8  >)

; Function Header:
; max stack depth = 3
; function size = 46 bytes
; local varsig tk = 0x0 
; Exception Information:
; 0 handlers, each consisting of filtered handlers

;	.formal.mb8   1,"__timeout$" SIG: valueType (token:0x4EB0B61)
;	.formal.mptr 0,"_this$" SIG: Optional C Binding Modifier(token:0x4FBF1D1).class (token:0x4FBF1D3)

;	.proc.beg
; Line 201
	ldarg.0				; _this$
	ldfld		?m_locked@lock@msclr@@3_NA
	brtrue.s	$LN1@acquire@3
; Line 203
	ldarg.0				; _this$
	ldfld		?m_object@lock@msclr@@3P$AAVObject@System@@$AA
	ldarg.1				; __timeout$
	ldarg.0				; _this$
	ldflda		?m_locked@lock@msclr@@3_NA
	call		?TryEnter@Monitor@Threading@System@@$$FSMXP$AAVObject@3@VTimeSpan@3@A$CA_N@Z
; Line 204
	ldarg.0				; _this$
	ldfld		?m_locked@lock@msclr@@3_NA
	brtrue.s	$LN1@acquire@3
; Line 207
	ldc.i4		-2147024638	; i32 0x80070102
	call		?GetExceptionForHR@Marshal@InteropServices@Runtime@System@@$$FSMP$AAVException@4@H@Z
	throw.u2	
$LN1@acquire@3:
; Line 210
	ret		
 .end ?acquire@lock@msclr@@$$FQ$AAMXVTimeSpan@System@@@Z ; msclr::lock::acquire
;	.proc.end.void
; Function compile flags: /Ogtp
	.text
	.comdat	any, ?try_acquire@lock@msclr@@$$FQ$AAM_NH@Z
.global	?try_acquire@lock@msclr@@$$FQ$AAM_NH@Z		; msclr::lock::try_acquire
?try_acquire@lock@msclr@@$$FQ$AAM_NH@Z:			; msclr::lock::try_acquire
;	.proc.def	D:I(I)

; Function Header:
; max stack depth = 3
; function size = 38 bytes
; local varsig tk = 0x0 
; Exception Information:
; 0 handlers, each consisting of filtered handlers

;	.formal.i4 1,"__timeout$" SIG: i4
;	.formal.mptr 0,"_this$" SIG: Optional C Binding Modifier(token:0x4FBF1D1).class (token:0x4FBF1D3)

;	.proc.beg
; Line 216
	ldarg.0				; _this$
	ldfld		?m_locked@lock@msclr@@3_NA
	brtrue.s	$LN1@try_acquir
; Line 218
	ldarg.0				; _this$
	ldfld		?m_object@lock@msclr@@3P$AAVObject@System@@$AA
	ldarg.1				; __timeout$
	ldarg.0				; _this$
	ldflda		?m_locked@lock@msclr@@3_NA
	call		?TryEnter@Monitor@Threading@System@@$$FSMXP$AAVObject@3@HA$CA_N@Z
; Line 219
	ldarg.0				; _this$
	ldfld		?m_locked@lock@msclr@@3_NA
	brtrue.s	$LN1@try_acquir
; Line 221
	ldc.i.0		0		; u8 0x0
	ret		
$LN1@try_acquir:
; Line 224
	ldc.i.1		1		; u8 0x1
	ret		
 .end ?try_acquire@lock@msclr@@$$FQ$AAM_NH@Z		; msclr::lock::try_acquire
;	.proc.end.u1
; Function compile flags: /Ogtp
	.text
	.comdat	any, ?try_acquire@lock@msclr@@$$FQ$AAM_NVTimeSpan@System@@@Z
.global	?try_acquire@lock@msclr@@$$FQ$AAM_NVTimeSpan@System@@@Z ; msclr::lock::try_acquire
?try_acquire@lock@msclr@@$$FQ$AAM_NVTimeSpan@System@@@Z: ; msclr::lock::try_acquire
;	.proc.def	D:I(M<8  >)

; Function Header:
; max stack depth = 3
; function size = 38 bytes
; local varsig tk = 0x0 
; Exception Information:
; 0 handlers, each consisting of filtered handlers

;	.formal.mb8   1,"__timeout$" SIG: valueType (token:0x4EB0B61)
;	.formal.mptr 0,"_this$" SIG: Optional C Binding Modifier(token:0x4FBF1D1).class (token:0x4FBF1D3)

;	.proc.beg
; Line 231
	ldarg.0				; _this$
	ldfld		?m_locked@lock@msclr@@3_NA
	brtrue.s	$LN1@try_acquir@2
; Line 233
	ldarg.0				; _this$
	ldfld		?m_object@lock@msclr@@3P$AAVObject@System@@$AA
	ldarg.1				; __timeout$
	ldarg.0				; _this$
	ldflda		?m_locked@lock@msclr@@3_NA
	call		?TryEnter@Monitor@Threading@System@@$$FSMXP$AAVObject@3@VTimeSpan@3@A$CA_N@Z
; Line 234
	ldarg.0				; _this$
	ldfld		?m_locked@lock@msclr@@3_NA
	brtrue.s	$LN1@try_acquir@2
; Line 236
	ldc.i.0		0		; u8 0x0
	ret		
$LN1@try_acquir@2:
; Line 239
	ldc.i.1		1		; u8 0x1
	ret		
 .end ?try_acquire@lock@msclr@@$$FQ$AAM_NVTimeSpan@System@@@Z ; msclr::lock::try_acquire
;	.proc.end.u1
; Function compile flags: /Ogtp
	.text
	.comdat	any, ?release@lock@msclr@@$$FQ$AAMXXZ
.global	?release@lock@msclr@@$$FQ$AAMXXZ		; msclr::lock::release
?release@lock@msclr@@$$FQ$AAMXXZ:			; msclr::lock::release
;	.proc.def	D:V()

; Function Header:
; max stack depth = 2
; function size = 27 bytes
; local varsig tk = 0x0 
; Exception Information:
; 0 handlers, each consisting of filtered handlers

;	.formal.mptr 0,"_this$" SIG: Optional C Binding Modifier(token:0x4FBF1D1).class (token:0x4FBF1D3)

;	.proc.beg
; Line 245
	ldarg.0				; _this$
	ldfld		?m_locked@lock@msclr@@3_NA
	brfalse.s	$LN1@release
; Line 247
	ldarg.0				; _this$
	ldfld		?m_object@lock@msclr@@3P$AAVObject@System@@$AA
	call		?Exit@Monitor@Threading@System@@$$FSMXP$AAVObject@3@@Z
; Line 248
	ldarg.0				; _this$
	ldc.i.0		0		; u8 0x0
	stfld		?m_locked@lock@msclr@@3_NA
$LN1@release:
; Line 250
	ret		
 .end ?release@lock@msclr@@$$FQ$AAMXXZ			; msclr::lock::release
;	.proc.end.void
	.bss
.local	$T75959,0
; Function compile flags: /Ogtp
	.text
	.comdat	any, ??1CelikInteropCleaner@CelikInterop@CelikNET@@$$FA$AAM@XZ
.global	??1CelikInteropCleaner@CelikInterop@CelikNET@@$$FA$AAM@XZ ; CelikNET::CelikInterop::CelikInteropCleaner::~CelikInteropCleaner
??1CelikInteropCleaner@CelikInterop@CelikNET@@$$FA$AAM@XZ: ; CelikNET::CelikInterop::CelikInteropCleaner::~CelikInteropCleaner
;	.proc.def	D:V()

; Function Header:
; max stack depth = 2
; function size = 22 bytes
; local varsig tk = 0x11000008 
; Exception Information:
; 0 handlers, each consisting of filtered handlers

;	.local.i4 0,"_err$75954" SIG: i4

;	.proc.beg
; File c:\projects\celiknet\celiknet\celiknet.cpp
; Line 147
	call		?EidCleanup@@$$J10YGHXZ
	stloc.0				; _err$75954
	ldloc.0				; _err$75954
	brfalse.s	$LN3@CelikInter@2
	ldstr		$StringLiteralTok$??_C@_1CK@GHJBIGP@?$AAC?$AAl?$AAe?$AAa?$AAn?$AAu?$AAp?$AA?5?$AAn?$AAi?$AAj?$AAe?$AA?5?$AAi?$AAz?$AAv?$AAr?$AAs?$AAe?$AAn?$AA?$AA@
	ldloc.0				; _err$75954
	newobj		??0CelikException@CelikNET@@$$FQ$AAM@P$AAVString@System@@H@Z
	throw.u2	
$LN3@CelikInter@2:
	ret		
 .end ??1CelikInteropCleaner@CelikInterop@CelikNET@@$$FA$AAM@XZ ; CelikNET::CelikInterop::CelikInteropCleaner::~CelikInteropCleaner
;	.proc.end.void
	.bss
.local	$T75969,0
; Function compile flags: /Ogtp
	.text
	.comdat	any, ??1CelikInterop@CelikNET@@$$FA$AAM@XZ
.global	??1CelikInterop@CelikNET@@$$FA$AAM@XZ		; CelikNET::CelikInterop::~CelikInterop
??1CelikInterop@CelikNET@@$$FA$AAM@XZ:			; CelikNET::CelikInterop::~CelikInterop
;	.proc.def	D:V()

; Function Header:
; max stack depth = 2
; function size = 22 bytes
; local varsig tk = 0x11000008 
; Exception Information:
; 0 handlers, each consisting of filtered handlers

;	.local.i4 0,"_err$75965" SIG: i4

;	.proc.beg
; Line 194
	call		?EidEndRead@@$$J10YGHXZ
	stloc.0				; _err$75965
	ldloc.0				; _err$75965
	brfalse.s	$LN3@CelikInter@3
	ldstr		$StringLiteralTok$??_C@_1CK@JNHFLCLF@?$AAE?$AAn?$AAd?$AAR?$AAe?$AAa?$AAd?$AA?5?$AAn?$AAi?$AAj?$AAe?$AA?5?$AAi?$AAz?$AAv?$AAr?$AAs?$AAe?$AAn?$AA?$AA@
	ldloc.0				; _err$75965
	newobj		??0CelikException@CelikNET@@$$FQ$AAM@P$AAVString@System@@H@Z
	throw.u2	
$LN3@CelikInter@3:
; Line 195
	ret		
 .end ??1CelikInterop@CelikNET@@$$FA$AAM@XZ		; CelikNET::CelikInterop::~CelikInterop
;	.proc.end.void
	.bss
.local	$T75995,0
; Function compile flags: /Ogtp
	.text
	.comdat	any, ?<Dispose>@CelikInteropCleaner@CelikInterop@CelikNET@@$$FM$AAMX_N@Z
.global	?<Dispose>@CelikInteropCleaner@CelikInterop@CelikNET@@$$FM$AAMX_N@Z ; CelikNET::CelikInterop::CelikInteropCleaner::<Dispose>
?<Dispose>@CelikInteropCleaner@CelikInterop@CelikNET@@$$FM$AAMX_N@Z: ; CelikNET::CelikInterop::CelikInteropCleaner::<Dispose>
;	.proc.def	D:V(I)

; Function Header:
; max stack depth = 2
; function size = 41 bytes
; local varsig tk = 0x11000008 
; Exception Information:
; 1 handlers, each consisting of filtered handlers

;	.formal.mptr 0,"_this$" SIG: Optional C Binding Modifier(token:0x4E5D13D).class (token:0x4E5D13F)
;	.formal.u1 1,"_disposing$" SIG: bool
;	.local.i4 0,"_err$75989" SIG: i4

;	.proc.beg
	ldarg.1				; _disposing$
	brfalse.s	$LN3@
	call		?EidCleanup@@$$J10YGHXZ
	stloc.0				; _err$75989
	ldloc.0				; _err$75989
	brfalse.s	$LN12@
	ldstr		$StringLiteralTok$??_C@_1CK@GHJBIGP@?$AAC?$AAl?$AAe?$AAa?$AAn?$AAu?$AAp?$AA?5?$AAn?$AAi?$AAj?$AAe?$AA?5?$AAi?$AAz?$AAv?$AAr?$AAs?$AAe?$AAn?$AA?$AA@
	ldloc.0				; _err$75989
	newobj		??0CelikException@CelikNET@@$$FQ$AAM@P$AAVString@System@@H@Z
	throw.u2	
$LN3@:
	nop		
$LN21@:
	ldarg.0				; _this$
	call		?<Finalizer>@CelikInteropCleaner@CelikInterop@CelikNET@@$$FA$AAMXXZ
$LN1@:
	leave.s		$LN12@
$LN7@:
	ldarg.0				; _this$
	call		?<Finalize>@Object@System@@$$FM$AAMXXZ
$LN9@:
	endfinally	
$LN12@:
$LN20@:
	ret		
 .end ?<Dispose>@CelikInteropCleaner@CelikInterop@CelikNET@@$$FM$AAMX_N@Z ; CelikNET::CelikInterop::CelikInteropCleaner::<Dispose>
;	.proc.end.void
; Function compile flags: /Ogtp
	.text
	.comdat	any, ?<Finalize>@CelikInteropCleaner@CelikInterop@CelikNET@@$$FM$AAMXXZ
.global	?<Finalize>@CelikInteropCleaner@CelikInterop@CelikNET@@$$FM$AAMXXZ ; CelikNET::CelikInterop::CelikInteropCleaner::<Finalize>
?<Finalize>@CelikInteropCleaner@CelikInterop@CelikNET@@$$FM$AAMXXZ: ; CelikNET::CelikInterop::CelikInteropCleaner::<Finalize>
;	.proc.def	D:V()

; Function Header:
; max stack depth = 2
; function size = 8 bytes
; local varsig tk = 0x0 
; Exception Information:
; 0 handlers, each consisting of filtered handlers

;	.formal.mptr 0,"_this$" SIG: Optional C Binding Modifier(token:0x4E5D13D).class (token:0x4E5D13F)

;	.proc.beg
	ldarg.0				; _this$
	ldc.i.0		0		; u8 0x0
	callvirt	?<Dispose>@CelikInteropCleaner@CelikInterop@CelikNET@@$$FM$AAMX_N@Z
	ret		
 .end ?<Finalize>@CelikInteropCleaner@CelikInterop@CelikNET@@$$FM$AAMXXZ ; CelikNET::CelikInterop::CelikInteropCleaner::<Finalize>
;	.proc.end.void
	.bss
.local	$T76023,0
; Function compile flags: /Ogtp
	.text
	.comdat	any, ?<Dispose>@CelikInterop@CelikNET@@$$FM$AAMX_N@Z
.global	?<Dispose>@CelikInterop@CelikNET@@$$FM$AAMX_N@Z	; CelikNET::CelikInterop::<Dispose>
?<Dispose>@CelikInterop@CelikNET@@$$FM$AAMX_N@Z:	; CelikNET::CelikInterop::<Dispose>
;	.proc.def	D:V(I)

; Function Header:
; max stack depth = 2
; function size = 41 bytes
; local varsig tk = 0x11000008 
; Exception Information:
; 1 handlers, each consisting of filtered handlers

;	.formal.mptr 0,"_this$" SIG: Optional C Binding Modifier(token:0x4E2909D).class (token:0x4E2909F)
;	.formal.u1 1,"_disposing$" SIG: bool
;	.local.i4 0,"_err$76018" SIG: i4

;	.proc.beg
	ldarg.1				; _disposing$
	brfalse.s	$LN3@
	call		?EidEndRead@@$$J10YGHXZ
	stloc.0				; _err$76018
	ldloc.0				; _err$76018
	brfalse.s	$LN12@
	ldstr		$StringLiteralTok$??_C@_1CK@JNHFLCLF@?$AAE?$AAn?$AAd?$AAR?$AAe?$AAa?$AAd?$AA?5?$AAn?$AAi?$AAj?$AAe?$AA?5?$AAi?$AAz?$AAv?$AAr?$AAs?$AAe?$AAn?$AA?$AA@
	ldloc.0				; _err$76018
	newobj		??0CelikException@CelikNET@@$$FQ$AAM@P$AAVString@System@@H@Z
	throw.u2	
$LN3@:
	nop		
$LN21@:
	ldarg.0				; _this$
	call		?<Finalizer>@CelikInterop@CelikNET@@$$FA$AAMXXZ
$LN1@:
	leave.s		$LN12@
$LN7@:
	ldarg.0				; _this$
	call		?<Finalize>@Object@System@@$$FM$AAMXXZ
$LN9@:
	endfinally	
$LN12@:
$LN20@:
	ret		
 .end ?<Dispose>@CelikInterop@CelikNET@@$$FM$AAMX_N@Z	; CelikNET::CelikInterop::<Dispose>
;	.proc.end.void
; Function compile flags: /Ogtp
	.text
	.comdat	any, ?<Finalize>@CelikInterop@CelikNET@@$$FM$AAMXXZ
.global	?<Finalize>@CelikInterop@CelikNET@@$$FM$AAMXXZ	; CelikNET::CelikInterop::<Finalize>
?<Finalize>@CelikInterop@CelikNET@@$$FM$AAMXXZ:		; CelikNET::CelikInterop::<Finalize>
;	.proc.def	D:V()

; Function Header:
; max stack depth = 2
; function size = 8 bytes
; local varsig tk = 0x0 
; Exception Information:
; 0 handlers, each consisting of filtered handlers

;	.formal.mptr 0,"_this$" SIG: Optional C Binding Modifier(token:0x4E2909D).class (token:0x4E2909F)

;	.proc.beg
	ldarg.0				; _this$
	ldc.i.0		0		; u8 0x0
	callvirt	?<Dispose>@CelikInterop@CelikNET@@$$FM$AAMX_N@Z
	ret		
 .end ?<Finalize>@CelikInterop@CelikNET@@$$FM$AAMXXZ	; CelikNET::CelikInterop::<Finalize>
;	.proc.end.void
.global	
	.bss
.local	,4
; Function compile flags: /Ogtp
	.text
	.comdat	any, ??$?0VCelikInteropCleaner@CelikInterop@CelikNET@@@lock@msclr@@$$FQ$AAM@P$AAVCelikInteropCleaner@CelikInterop@CelikNET@@@Z
.global	??$?0VCelikInteropCleaner@CelikInterop@CelikNET@@@lock@msclr@@$$FQ$AAM@P$AAVCelikInteropCleaner@CelikInterop@CelikNET@@@Z ; msclr::lock::lock<CelikNET::CelikInterop::CelikInteropCleaner>
??$?0VCelikInteropCleaner@CelikInterop@CelikNET@@@lock@msclr@@$$FQ$AAM@P$AAVCelikInteropCleaner@CelikInterop@CelikNET@@@Z: ; msclr::lock::lock<CelikNET::CelikInterop::CelikInteropCleaner>
;	.proc.def	D:V(P)

; Function Header:
; max stack depth = 2
; function size = 28 bytes
; local varsig tk = 0x0 
; Exception Information:
; 0 handlers, each consisting of filtered handlers

;	.formal.mptr 1,"__object$" SIG: class (token:0x4E41C6D)
;	.formal.mptr 0,"_this$" SIG: Optional C Binding Modifier(token:0x4FBF1D1).class (token:0x4FBF1D3)

;	.proc.beg
; File c:\program files (x86)\microsoft visual studio 10.0\vc\include\msclr\lock.h
; Line 49
	ldarg.0				; _this$
	ldarg.1				; __object$
	stfld		?m_object@lock@msclr@@3P$AAVObject@System@@$AA
	ldarg.0				; _this$
	ldc.i.0		0		; u8 0x0
	stfld		?m_locked@lock@msclr@@3_NA
	ldarg.0				; _this$
	call		??0Object@System@@$$FQ$AAM@XZ
; Line 53
	ldarg.0				; _this$
	ldc.i.-1	-1		; i32 0xffffffff
	call		?acquire@lock@msclr@@$$FQ$AAMXH@Z
; Line 54
	ret		
 .end ??$?0VCelikInteropCleaner@CelikInterop@CelikNET@@@lock@msclr@@$$FQ$AAM@P$AAVCelikInteropCleaner@CelikInterop@CelikNET@@@Z ; msclr::lock::lock<CelikNET::CelikInterop::CelikInteropCleaner>
;	.proc.end.void
; Function compile flags: /Ogtp
	.text
	.comdat	any, ??1lock@msclr@@$$FA$AAM@XZ
.global	??1lock@msclr@@$$FA$AAM@XZ			; msclr::lock::~lock
??1lock@msclr@@$$FA$AAM@XZ:				; msclr::lock::~lock
;	.proc.def	D:V()

; Function Header:
; max stack depth = 2
; function size = 27 bytes
; local varsig tk = 0x0 
; Exception Information:
; 0 handlers, each consisting of filtered handlers

;	.formal.mptr 0,"_this$" SIG: Optional C Binding Modifier(token:0x4FBF1D1).class (token:0x4FBF1D3)

;	.proc.beg
; Line 136
	ldarg.0				; _this$
	ldfld		?m_locked@lock@msclr@@3_NA
	brfalse.s	$LN3@lock
	ldarg.0				; _this$
	ldfld		?m_object@lock@msclr@@3P$AAVObject@System@@$AA
	call		?Exit@Monitor@Threading@System@@$$FSMXP$AAVObject@3@@Z
	ldarg.0				; _this$
	ldc.i.0		0		; u8 0x0
	stfld		?m_locked@lock@msclr@@3_NA
$LN3@lock:
; Line 137
	ret		
 .end ??1lock@msclr@@$$FA$AAM@XZ			; msclr::lock::~lock
;	.proc.end.void
; Function compile flags: /Ogtp
	.text
	.comdat	any, ?<Dispose>@lock@msclr@@$$FM$AAMX_N@Z
.global	?<Dispose>@lock@msclr@@$$FM$AAMX_N@Z		; msclr::lock::<Dispose>
?<Dispose>@lock@msclr@@$$FM$AAMX_N@Z:			; msclr::lock::<Dispose>
;	.proc.def	D:V(I)

; Function Header:
; max stack depth = 2
; function size = 38 bytes
; local varsig tk = 0x0 
; Exception Information:
; 0 handlers, each consisting of filtered handlers

;	.formal.mptr 0,"_this$" SIG: Optional C Binding Modifier(token:0x4FBF1D1).class (token:0x4FBF1D3)
;	.formal.u1 1,"_disposing$" SIG: bool

;	.proc.beg
	ldarg.1				; _disposing$
	brfalse.s	$LN2@
	ldarg.0				; _this$
	ldfld		?m_locked@lock@msclr@@3_NA
	brfalse.s	$LN1@
	ldarg.0				; _this$
	ldfld		?m_object@lock@msclr@@3P$AAVObject@System@@$AA
	call		?Exit@Monitor@Threading@System@@$$FSMXP$AAVObject@3@@Z
	ldarg.0				; _this$
	ldc.i.0		0		; u8 0x0
	stfld		?m_locked@lock@msclr@@3_NA
	br.s		$LN1@
$LN2@:
	ldarg.0				; _this$
	call		?<Finalize>@Object@System@@$$FM$AAMXXZ
$LN1@:
	ret		
 .end ?<Dispose>@lock@msclr@@$$FM$AAMX_N@Z		; msclr::lock::<Dispose>
;	.proc.end.void
.global	?communityOfBirth@FixedPersonalData@CelikNET@@3P$AAVString@System@@$AA ; CelikNET::FixedPersonalData::communityOfBirth
.global	?dateOfBirth@FixedPersonalData@CelikNET@@3P$AAVString@System@@$AA ; CelikNET::FixedPersonalData::dateOfBirth
.global	?stateOfBirth@FixedPersonalData@CelikNET@@3P$AAVString@System@@$AA ; CelikNET::FixedPersonalData::stateOfBirth
.global	?placeOfBirth@FixedPersonalData@CelikNET@@3P$AAVString@System@@$AA ; CelikNET::FixedPersonalData::placeOfBirth
.global	?sex@FixedPersonalData@CelikNET@@3P$AAVString@System@@$AA ; CelikNET::FixedPersonalData::sex
.global	?givenName@FixedPersonalData@CelikNET@@3P$AAVString@System@@$AA ; CelikNET::FixedPersonalData::givenName
.global	?surname@FixedPersonalData@CelikNET@@3P$AAVString@System@@$AA ; CelikNET::FixedPersonalData::surname
.global	?personalNumber@FixedPersonalData@CelikNET@@3P$AAVString@System@@$AA ; CelikNET::FixedPersonalData::personalNumber
.global	
.global	
.global	
	.bss
.local	$T76122,0
.local	?communityOfBirth@FixedPersonalData@CelikNET@@3P$AAVString@System@@$AA,4 ; CelikNET::FixedPersonalData::communityOfBirth
.local	?dateOfBirth@FixedPersonalData@CelikNET@@3P$AAVString@System@@$AA,4 ; CelikNET::FixedPersonalData::dateOfBirth
.local	?stateOfBirth@FixedPersonalData@CelikNET@@3P$AAVString@System@@$AA,4 ; CelikNET::FixedPersonalData::stateOfBirth
.local	?placeOfBirth@FixedPersonalData@CelikNET@@3P$AAVString@System@@$AA,4 ; CelikNET::FixedPersonalData::placeOfBirth
.local	?sex@FixedPersonalData@CelikNET@@3P$AAVString@System@@$AA,4 ; CelikNET::FixedPersonalData::sex
.local	?givenName@FixedPersonalData@CelikNET@@3P$AAVString@System@@$AA,4 ; CelikNET::FixedPersonalData::givenName
.local	?surname@FixedPersonalData@CelikNET@@3P$AAVString@System@@$AA,4 ; CelikNET::FixedPersonalData::surname
.local	?personalNumber@FixedPersonalData@CelikNET@@3P$AAVString@System@@$AA,4 ; CelikNET::FixedPersonalData::personalNumber
.local	$StringLiteralTok$??_C@_1EG@OFKIPPCA@?$AAR?$AAe?$AAa?$AAd?$AAF?$AAi?$AAx?$AAe?$AAd?$AAP?$AAe?$AAr?$AAs?$AAo?$AAn?$AAa?$AAl?$AAD?$AAa?$AAt?$AAa?$AA?5?$AAn?$AAi?$AAj?$AAe?$AA?5?$AAi?$AAz?$AAv?$AAr?$AAs@,4
.local	,4
.local	,4
.local	,4
; Function compile flags: /Ogtp
	.text
	.comdat	any, ?ReadFixedPersonalData@CelikInterop@CelikNET@@$$FQ$AAMP$AAUFixedPersonalData@2@XZ
.global	?ReadFixedPersonalData@CelikInterop@CelikNET@@$$FQ$AAMP$AAUFixedPersonalData@2@XZ ; CelikNET::CelikInterop::ReadFixedPersonalData
?ReadFixedPersonalData@CelikInterop@CelikNET@@$$FQ$AAMP$AAUFixedPersonalData@2@XZ: ; CelikNET::CelikInterop::ReadFixedPersonalData
;	.proc.def	D:P()

; Function Header:
; max stack depth = 4
; function size = 594 bytes
; local varsig tk = 0x11000014 
; Exception Information:
; 2 handlers, each consisting of filtered handlers

;	.local.mptr 20,"$T76118" SIG: class (token:0x7D56BD)
;	.local.mptr 21,"$T76105" SIG: string
;	.local.mptr 11,"_managedArray$76102" SIG: szarray (token:0x4ED238D)
;	.local.i4 3,"$T76104" SIG: i4
;	.local.mptr 22,"$T76098" SIG: string
;	.local.mptr 12,"_managedArray$76095" SIG: szarray (token:0x4ED238D)
;	.local.i4 4,"$T76097" SIG: i4
;	.local.mptr 23,"$T76091" SIG: string
;	.local.mptr 13,"_managedArray$76088" SIG: szarray (token:0x4ED238D)
;	.local.i4 5,"$T76090" SIG: i4
;	.local.mptr 24,"$T76084" SIG: string
;	.local.mptr 14,"_managedArray$76081" SIG: szarray (token:0x4ED238D)
;	.local.i4 6,"$T76083" SIG: i4
;	.local.mptr 25,"$T76077" SIG: string
;	.local.mptr 15,"_managedArray$76074" SIG: szarray (token:0x4ED238D)
;	.local.i4 7,"$T76076" SIG: i4
;	.local.mptr 26,"$T76070" SIG: string
;	.local.mptr 16,"_managedArray$76067" SIG: szarray (token:0x4ED238D)
;	.local.i4 8,"$T76069" SIG: i4
;	.local.mptr 27,"$T76063" SIG: string
;	.local.mptr 17,"_managedArray$76060" SIG: szarray (token:0x4ED238D)
;	.local.i4 9,"$T76062" SIG: i4
;	.local.mptr 28,"$T76056" SIG: string
;	.local.mptr 18,"_managedArray$76053" SIG: szarray (token:0x4ED238D)
;	.local.i4 10,"$T76055" SIG: i4
;	.local.mptr 1,"_fpd$" SIG: class (token:0x4E34CD9)
;	.local.i4 19,"_err$" SIG: i4
;	.local.i4 0,"_p$" SIG: ptr.valueType (token:0x4E7A2DE)
;	.local.i4 29,"$T76111" SIG: Optional C Binding Modifier(token:0x7D8095).class (token:0x7D8097)
;	.local.mptr 2,"_l$" SIG: class (token:0x4E63921)

;	.proc.beg
; File c:\projects\celiknet\celiknet\celiknet.cpp
; Line 204
	ldnull		0		; i32 0x0
	stloc.2				; _l$
; Line 205
	call		?get@singleton@CelikInteropCleaner@CelikInterop@CelikNET@@$$FSMP$AAV234@XZ
	newobj		??$?0VCelikInteropCleaner@CelikInterop@CelikNET@@@lock@msclr@@$$FQ$AAM@P$AAVCelikInteropCleaner@CelikInterop@CelikNET@@@Z
	stloc.s		29		; $T76111
$LN22@ReadFixedP:
	ldloc.s		29		; $T76111
	stloc.2				; _l$
; Line 207
	ldc.i4		280		; u32 0x118
	call		??2@$$FYAPAXI@Z
	stloc.0				; _p$
; Line 208
	ldloc.0				; _p$
	call		?EidReadFixedPersonalData@@$$J14YGHPAUtagEID_FIXED_PERSONAL_DATA@@@Z
	stloc.s		19		; _err$
	ldloc.s		19		; _err$
	brfalse.s	$LN1@ReadFixedP
	ldstr		$StringLiteralTok$??_C@_1EG@OFKIPPCA@?$AAR?$AAe?$AAa?$AAd?$AAF?$AAi?$AAx?$AAe?$AAd?$AAP?$AAe?$AAr?$AAs?$AAo?$AAn?$AAa?$AAl?$AAD?$AAa?$AAt?$AAa?$AA?5?$AAn?$AAi?$AAj?$AAe?$AA?5?$AAi?$AAz?$AAv?$AAr?$AAs@
	ldloc.s		19		; _err$
	newobj		??0CelikException@CelikNET@@$$FQ$AAM@P$AAVString@System@@H@Z
	throw.u2	
$LN1@ReadFixedP:
; Line 209
	newobj		??0FixedPersonalData@CelikNET@@$$FQ$AAM@XZ
	stloc.1				; _fpd$
; Line 210
	ldloc.0				; _p$
	ldc.i4.s	16		; i32 0x10
	add		
	ldind.i4	
	stloc.s		10		; $T76055
	ldloc.s		10		; $T76055
	newarr		$TypeTok$117211C8$
	stloc.s		18		; _managedArray$76053
	ldloc.0				; _p$
	call		??BIntPtr@System@@$$FSM?AV01@PAX@Z
	ldloc.s		18		; _managedArray$76053
	ldc.i.0		0		; i32 0x0
	ldloc.s		10		; $T76055
	call		?Copy@Marshal@InteropServices@Runtime@System@@$$FSMXVIntPtr@4@P$01AEHH@Z
	call		?get@UTF8@Encoding@Text@System@@$$FSMP$AAV234@XZ
	ldloc.s		18		; _managedArray$76053
	ldc.i.0		0		; i32 0x0
	ldloc.s		10		; $T76055
	callvirt	?GetString@Encoding@Text@System@@$$FU$AAMP$AAVString@3@P$01AEHH@Z
	stloc.s		28		; $T76056
	ldloc.1				; _fpd$
	ldloc.s		28		; $T76056
	stfld		?personalNumber@FixedPersonalData@CelikNET@@3P$AAVString@System@@$AA
; Line 211
	ldloc.0				; _p$
	ldc.i4.s	80		; i32 0x50
	add		
	ldind.i4	
	stloc.s		9		; $T76062
	ldloc.s		9		; $T76062
	newarr		$TypeTok$117211C8$
	stloc.s		17		; _managedArray$76060
	ldloc.0				; _p$
	ldc.i4.s	20		; i32 0x14
	add		
	call		??BIntPtr@System@@$$FSM?AV01@PAX@Z
	ldloc.s		17		; _managedArray$76060
	ldc.i.0		0		; i32 0x0
	ldloc.s		9		; $T76062
	call		?Copy@Marshal@InteropServices@Runtime@System@@$$FSMXVIntPtr@4@P$01AEHH@Z
	call		?get@UTF8@Encoding@Text@System@@$$FSMP$AAV234@XZ
	ldloc.s		17		; _managedArray$76060
	ldc.i.0		0		; i32 0x0
	ldloc.s		9		; $T76062
	callvirt	?GetString@Encoding@Text@System@@$$FU$AAMP$AAVString@3@P$01AEHH@Z
	stloc.s		27		; $T76063
	ldloc.1				; _fpd$
	ldloc.s		27		; $T76063
	stfld		?surname@FixedPersonalData@CelikNET@@3P$AAVString@System@@$AA
; Line 212
	ldloc.0				; _p$
	ldc.i4.s	124		; i32 0x7c
	add		
	ldind.i4	
	stloc.s		8		; $T76069
	ldloc.s		8		; $T76069
	newarr		$TypeTok$117211C8$
	stloc.s		16		; _managedArray$76067
	ldloc.0				; _p$
	ldc.i4.s	84		; i32 0x54
	add		
	call		??BIntPtr@System@@$$FSM?AV01@PAX@Z
	ldloc.s		16		; _managedArray$76067
	ldc.i.0		0		; i32 0x0
	ldloc.s		8		; $T76069
	call		?Copy@Marshal@InteropServices@Runtime@System@@$$FSMXVIntPtr@4@P$01AEHH@Z
	call		?get@UTF8@Encoding@Text@System@@$$FSMP$AAV234@XZ
	ldloc.s		16		; _managedArray$76067
	ldc.i.0		0		; i32 0x0
	ldloc.s		8		; $T76069
	callvirt	?GetString@Encoding@Text@System@@$$FU$AAMP$AAVString@3@P$01AEHH@Z
	stloc.s		26		; $T76070
	ldloc.1				; _fpd$
	ldloc.s		26		; $T76070
	stfld		?givenName@FixedPersonalData@CelikNET@@3P$AAVString@System@@$AA
; Line 213
	ldloc.0				; _p$
	ldc.i4		164		; i32 0xa4
	add		
	ldind.i4	
	stloc.s		7		; $T76076
	ldloc.s		7		; $T76076
	newarr		$TypeTok$117211C8$
	stloc.s		15		; _managedArray$76074
	ldloc.0				; _p$
	ldc.i4		160		; i32 0xa0
	add		
	call		??BIntPtr@System@@$$FSM?AV01@PAX@Z
	ldloc.s		15		; _managedArray$76074
	ldc.i.0		0		; i32 0x0
	ldloc.s		7		; $T76076
	call		?Copy@Marshal@InteropServices@Runtime@System@@$$FSMXVIntPtr@4@P$01AEHH@Z
	call		?get@UTF8@Encoding@Text@System@@$$FSMP$AAV234@XZ
	ldloc.s		15		; _managedArray$76074
	ldc.i.0		0		; i32 0x0
	ldloc.s		7		; $T76076
	callvirt	?GetString@Encoding@Text@System@@$$FU$AAMP$AAVString@3@P$01AEHH@Z
	stloc.s		25		; $T76077
	ldloc.1				; _fpd$
	ldloc.s		25		; $T76077
	stfld		?sex@FixedPersonalData@CelikNET@@3P$AAVString@System@@$AA
; Line 214
	ldloc.0				; _p$
	ldc.i4		196		; i32 0xc4
	add		
	ldind.i4	
	stloc.s		6		; $T76083
	ldloc.s		6		; $T76083
	newarr		$TypeTok$117211C8$
	stloc.s		14		; _managedArray$76081
	ldloc.0				; _p$
	ldc.i4		168		; i32 0xa8
	add		
	call		??BIntPtr@System@@$$FSM?AV01@PAX@Z
	ldloc.s		14		; _managedArray$76081
	ldc.i.0		0		; i32 0x0
	ldloc.s		6		; $T76083
	call		?Copy@Marshal@InteropServices@Runtime@System@@$$FSMXVIntPtr@4@P$01AEHH@Z
	call		?get@UTF8@Encoding@Text@System@@$$FSMP$AAV234@XZ
	ldloc.s		14		; _managedArray$76081
	ldc.i.0		0		; i32 0x0
	ldloc.s		6		; $T76083
	callvirt	?GetString@Encoding@Text@System@@$$FU$AAMP$AAVString@3@P$01AEHH@Z
	stloc.s		24		; $T76084
	ldloc.1				; _fpd$
	ldloc.s		24		; $T76084
	stfld		?placeOfBirth@FixedPersonalData@CelikNET@@3P$AAVString@System@@$AA
; Line 215
	ldloc.0				; _p$
	ldc.i4		228		; i32 0xe4
	add		
	ldind.i4	
	stloc.s		5		; $T76090
	ldloc.s		5		; $T76090
	newarr		$TypeTok$117211C8$
	stloc.s		13		; _managedArray$76088
	ldloc.0				; _p$
	ldc.i4		200		; i32 0xc8
	add		
	call		??BIntPtr@System@@$$FSM?AV01@PAX@Z
	ldloc.s		13		; _managedArray$76088
	ldc.i.0		0		; i32 0x0
	ldloc.s		5		; $T76090
	call		?Copy@Marshal@InteropServices@Runtime@System@@$$FSMXVIntPtr@4@P$01AEHH@Z
	call		?get@UTF8@Encoding@Text@System@@$$FSMP$AAV234@XZ
	ldloc.s		13		; _managedArray$76088
	ldc.i.0		0		; i32 0x0
	ldloc.s		5		; $T76090
	callvirt	?GetString@Encoding@Text@System@@$$FU$AAMP$AAVString@3@P$01AEHH@Z
	stloc.s		23		; $T76091
	ldloc.1				; _fpd$
	ldloc.s		23		; $T76091
	stfld		?stateOfBirth@FixedPersonalData@CelikNET@@3P$AAVString@System@@$AA
; Line 216
	ldloc.0				; _p$
	ldc.i4		244		; i32 0xf4
	add		
	ldind.i4	
	stloc.s		4		; $T76097
	ldloc.s		4		; $T76097
	newarr		$TypeTok$117211C8$
	stloc.s		12		; _managedArray$76095
	ldloc.0				; _p$
	ldc.i4		232		; i32 0xe8
	add		
	call		??BIntPtr@System@@$$FSM?AV01@PAX@Z
	ldloc.s		12		; _managedArray$76095
	ldc.i.0		0		; i32 0x0
	ldloc.s		4		; $T76097
	call		?Copy@Marshal@InteropServices@Runtime@System@@$$FSMXVIntPtr@4@P$01AEHH@Z
	call		?get@UTF8@Encoding@Text@System@@$$FSMP$AAV234@XZ
	ldloc.s		12		; _managedArray$76095
	ldc.i.0		0		; i32 0x0
	ldloc.s		4		; $T76097
	callvirt	?GetString@Encoding@Text@System@@$$FU$AAMP$AAVString@3@P$01AEHH@Z
	stloc.s		22		; $T76098
	ldloc.1				; _fpd$
	ldloc.s		22		; $T76098
	stfld		?dateOfBirth@FixedPersonalData@CelikNET@@3P$AAVString@System@@$AA
; Line 217
	ldloc.0				; _p$
	ldc.i4		276		; i32 0x114
	add		
	ldind.i4	
	stloc.3				; $T76104
	ldloc.3				; $T76104
	newarr		$TypeTok$117211C8$
	stloc.s		11		; _managedArray$76102
	ldloc.0				; _p$
	ldc.i4		248		; i32 0xf8
	add		
	call		??BIntPtr@System@@$$FSM?AV01@PAX@Z
	ldloc.s		11		; _managedArray$76102
	ldc.i.0		0		; i32 0x0
	ldloc.3				; $T76104
	call		?Copy@Marshal@InteropServices@Runtime@System@@$$FSMXVIntPtr@4@P$01AEHH@Z
	call		?get@UTF8@Encoding@Text@System@@$$FSMP$AAV234@XZ
	ldloc.s		11		; _managedArray$76102
	ldc.i.0		0		; i32 0x0
	ldloc.3				; $T76104
	callvirt	?GetString@Encoding@Text@System@@$$FU$AAMP$AAVString@3@P$01AEHH@Z
	stloc.s		21		; $T76105
	ldloc.1				; _fpd$
	ldloc.s		21		; $T76105
	stfld		?communityOfBirth@FixedPersonalData@CelikNET@@3P$AAVString@System@@$AA
	leave.s		$LN23@ReadFixedP
$LN24@ReadFixedP:
	ldloc.2				; _l$
	callvirt	?<Dispose>@IDisposable@System@@$$FU$AAMXXZ
	endfinally	
$LN23@ReadFixedP:
; Line 218
	ldloc.2				; _l$
	callvirt	?<Dispose>@IDisposable@System@@$$FU$AAMXXZ
	ldloc.1				; _fpd$
	ret		
$LN25@ReadFixedP:
; Line 219
	ldnull		
	stloc.s		20		; $T76118
	leave.s		$LN26@ReadFixedP
$LN27@ReadFixedP:
	ldloc.2				; _l$
	callvirt	?<Dispose>@IDisposable@System@@$$FU$AAMXXZ
	endfinally	
$LN26@ReadFixedP:
	ldloc.s		20		; $T76118
	ret		
 .end ?ReadFixedPersonalData@CelikInterop@CelikNET@@$$FQ$AAMP$AAUFixedPersonalData@2@XZ ; CelikNET::CelikInterop::ReadFixedPersonalData
;	.proc.end.mptr
.global	?apartmentNumber@VariablePersonalData@CelikNET@@3P$AAVString@System@@$AA ; CelikNET::VariablePersonalData::apartmentNumber
.global	?floor@VariablePersonalData@CelikNET@@3P$AAVString@System@@$AA ; CelikNET::VariablePersonalData::floor
.global	?entrance@VariablePersonalData@CelikNET@@3P$AAVString@System@@$AA ; CelikNET::VariablePersonalData::entrance
.global	?houseLetter@VariablePersonalData@CelikNET@@3P$AAVString@System@@$AA ; CelikNET::VariablePersonalData::houseLetter
.global	?houseNumber@VariablePersonalData@CelikNET@@3P$AAVString@System@@$AA ; CelikNET::VariablePersonalData::houseNumber
.global	?street@VariablePersonalData@CelikNET@@3P$AAVString@System@@$AA ; CelikNET::VariablePersonalData::street
.global	?place@VariablePersonalData@CelikNET@@3P$AAVString@System@@$AA ; CelikNET::VariablePersonalData::place
.global	?community@VariablePersonalData@CelikNET@@3P$AAVString@System@@$AA ; CelikNET::VariablePersonalData::community
.global	?state@VariablePersonalData@CelikNET@@3P$AAVString@System@@$AA ; CelikNET::VariablePersonalData::state
.global	
.global	
	.bss
.local	$T76202,0
.local	?apartmentNumber@VariablePersonalData@CelikNET@@3P$AAVString@System@@$AA,4 ; CelikNET::VariablePersonalData::apartmentNumber
.local	?floor@VariablePersonalData@CelikNET@@3P$AAVString@System@@$AA,4 ; CelikNET::VariablePersonalData::floor
.local	?entrance@VariablePersonalData@CelikNET@@3P$AAVString@System@@$AA,4 ; CelikNET::VariablePersonalData::entrance
.local	?houseLetter@VariablePersonalData@CelikNET@@3P$AAVString@System@@$AA,4 ; CelikNET::VariablePersonalData::houseLetter
.local	?houseNumber@VariablePersonalData@CelikNET@@3P$AAVString@System@@$AA,4 ; CelikNET::VariablePersonalData::houseNumber
.local	?street@VariablePersonalData@CelikNET@@3P$AAVString@System@@$AA,4 ; CelikNET::VariablePersonalData::street
.local	?place@VariablePersonalData@CelikNET@@3P$AAVString@System@@$AA,4 ; CelikNET::VariablePersonalData::place
.local	?community@VariablePersonalData@CelikNET@@3P$AAVString@System@@$AA,4 ; CelikNET::VariablePersonalData::community
.local	?state@VariablePersonalData@CelikNET@@3P$AAVString@System@@$AA,4 ; CelikNET::VariablePersonalData::state
.local	$StringLiteralTok$??_C@_1EM@LGKFNMDG@?$AAR?$AAe?$AAa?$AAd?$AAV?$AAa?$AAr?$AAi?$AAa?$AAb?$AAl?$AAe?$AAP?$AAe?$AAr?$AAs?$AAo?$AAn?$AAa?$AAl?$AAD?$AAa?$AAt?$AAa?$AA?5?$AAn?$AAi?$AAj?$AAe?$AA?5?$AAi?$AAz@,4
.local	,4
.local	,4
; Function compile flags: /Ogtp
	.text
	.comdat	any, ?ReadVariablePersonalData@CelikInterop@CelikNET@@$$FQ$AAMP$AAUVariablePersonalData@2@XZ
.global	?ReadVariablePersonalData@CelikInterop@CelikNET@@$$FQ$AAMP$AAUVariablePersonalData@2@XZ ; CelikNET::CelikInterop::ReadVariablePersonalData
?ReadVariablePersonalData@CelikInterop@CelikNET@@$$FQ$AAMP$AAUVariablePersonalData@2@XZ: ; CelikNET::CelikInterop::ReadVariablePersonalData
;	.proc.def	D:P()

; Function Header:
; max stack depth = 4
; function size = 643 bytes
; local varsig tk = 0x11000017 
; Exception Information:
; 2 handlers, each consisting of filtered handlers

;	.local.mptr 22,"$T76199" SIG: class (token:0x7D5889)
;	.local.mptr 23,"$T76188" SIG: string
;	.local.mptr 12,"_managedArray$76185" SIG: szarray (token:0x4ED238D)
;	.local.i4 3,"$T76187" SIG: i4
;	.local.mptr 24,"$T76181" SIG: string
;	.local.mptr 13,"_managedArray$76178" SIG: szarray (token:0x4ED238D)
;	.local.i4 4,"$T76180" SIG: i4
;	.local.mptr 25,"$T76174" SIG: string
;	.local.mptr 14,"_managedArray$76171" SIG: szarray (token:0x4ED238D)
;	.local.i4 5,"$T76173" SIG: i4
;	.local.mptr 26,"$T76167" SIG: string
;	.local.mptr 15,"_managedArray$76164" SIG: szarray (token:0x4ED238D)
;	.local.i4 6,"$T76166" SIG: i4
;	.local.mptr 27,"$T76160" SIG: string
;	.local.mptr 16,"_managedArray$76157" SIG: szarray (token:0x4ED238D)
;	.local.i4 7,"$T76159" SIG: i4
;	.local.mptr 28,"$T76153" SIG: string
;	.local.mptr 17,"_managedArray$76150" SIG: szarray (token:0x4ED238D)
;	.local.i4 8,"$T76152" SIG: i4
;	.local.mptr 29,"$T76146" SIG: string
;	.local.mptr 18,"_managedArray$76143" SIG: szarray (token:0x4ED238D)
;	.local.i4 9,"$T76145" SIG: i4
;	.local.mptr 30,"$T76139" SIG: string
;	.local.mptr 19,"_managedArray$76136" SIG: szarray (token:0x4ED238D)
;	.local.i4 10,"$T76138" SIG: i4
;	.local.mptr 31,"$T76132" SIG: string
;	.local.mptr 20,"_managedArray$76129" SIG: szarray (token:0x4ED238D)
;	.local.i4 11,"$T76131" SIG: i4
;	.local.mptr 1,"_vpd$" SIG: class (token:0x4E49B51)
;	.local.i4 21,"_err$" SIG: i4
;	.local.i4 0,"_p$" SIG: ptr.valueType (token:0x4E5770A)
;	.local.i4 32,"$T76192" SIG: Optional C Binding Modifier(token:0x7D8095).class (token:0x7D8097)
;	.local.mptr 2,"_l$" SIG: class (token:0x4E63921)

;	.proc.beg
; Line 228
	ldnull		0		; i32 0x0
	stloc.2				; _l$
; Line 229
	call		?get@singleton@CelikInteropCleaner@CelikInterop@CelikNET@@$$FSMP$AAV234@XZ
	newobj		??$?0VCelikInteropCleaner@CelikInterop@CelikNET@@@lock@msclr@@$$FQ$AAM@P$AAVCelikInteropCleaner@CelikInterop@CelikNET@@@Z
	stloc.s		32		; $T76192
$LN24@ReadVariab:
	ldloc.s		32		; $T76192
	stloc.2				; _l$
; Line 231
	ldc.i4		160		; u32 0xa0
	call		??2@$$FYAPAXI@Z
	stloc.0				; _p$
; Line 232
	ldloc.0				; _p$
	call		?EidReadVariablePersonalData@@$$J14YGHPAUtagEID_VARIABLE_PERSONAL_DATA@@@Z
	stloc.s		21		; _err$
	ldloc.s		21		; _err$
	brfalse.s	$LN1@ReadVariab
	ldstr		$StringLiteralTok$??_C@_1EM@LGKFNMDG@?$AAR?$AAe?$AAa?$AAd?$AAV?$AAa?$AAr?$AAi?$AAa?$AAb?$AAl?$AAe?$AAP?$AAe?$AAr?$AAs?$AAo?$AAn?$AAa?$AAl?$AAD?$AAa?$AAt?$AAa?$AA?5?$AAn?$AAi?$AAj?$AAe?$AA?5?$AAi?$AAz@
	ldloc.s		21		; _err$
	newobj		??0CelikException@CelikNET@@$$FQ$AAM@P$AAVString@System@@H@Z
	throw.u2	
$LN1@ReadVariab:
; Line 233
	newobj		??0VariablePersonalData@CelikNET@@$$FQ$AAM@XZ
	stloc.1				; _vpd$
; Line 234
	ldloc.0				; _p$
	ldc.i.4		4		; i32 0x4
	add		
	ldind.i4	
	stloc.s		11		; $T76131
	ldloc.s		11		; $T76131
	newarr		$TypeTok$117211C8$
	stloc.s		20		; _managedArray$76129
	ldloc.0				; _p$
	call		??BIntPtr@System@@$$FSM?AV01@PAX@Z
	ldloc.s		20		; _managedArray$76129
	ldc.i.0		0		; i32 0x0
	ldloc.s		11		; $T76131
	call		?Copy@Marshal@InteropServices@Runtime@System@@$$FSMXVIntPtr@4@P$01AEHH@Z
	call		?get@UTF8@Encoding@Text@System@@$$FSMP$AAV234@XZ
	ldloc.s		20		; _managedArray$76129
	ldc.i.0		0		; i32 0x0
	ldloc.s		11		; $T76131
	callvirt	?GetString@Encoding@Text@System@@$$FU$AAMP$AAVString@3@P$01AEHH@Z
	stloc.s		31		; $T76132
	ldloc.1				; _vpd$
	ldloc.s		31		; $T76132
	stfld		?state@VariablePersonalData@CelikNET@@3P$AAVString@System@@$AA
; Line 235
	ldloc.0				; _p$
	ldc.i4.s	36		; i32 0x24
	add		
	ldind.i4	
	stloc.s		10		; $T76138
	ldloc.s		10		; $T76138
	newarr		$TypeTok$117211C8$
	stloc.s		19		; _managedArray$76136
	ldloc.0				; _p$
	ldc.i.8		8		; i32 0x8
	add		
	call		??BIntPtr@System@@$$FSM?AV01@PAX@Z
	ldloc.s		19		; _managedArray$76136
	ldc.i.0		0		; i32 0x0
	ldloc.s		10		; $T76138
	call		?Copy@Marshal@InteropServices@Runtime@System@@$$FSMXVIntPtr@4@P$01AEHH@Z
	call		?get@UTF8@Encoding@Text@System@@$$FSMP$AAV234@XZ
	ldloc.s		19		; _managedArray$76136
	ldc.i.0		0		; i32 0x0
	ldloc.s		10		; $T76138
	callvirt	?GetString@Encoding@Text@System@@$$FU$AAMP$AAVString@3@P$01AEHH@Z
	stloc.s		30		; $T76139
	ldloc.1				; _vpd$
	ldloc.s		30		; $T76139
	stfld		?community@VariablePersonalData@CelikNET@@3P$AAVString@System@@$AA
; Line 236
	ldloc.0				; _p$
	ldc.i4.s	68		; i32 0x44
	add		
	ldind.i4	
	stloc.s		9		; $T76145
	ldloc.s		9		; $T76145
	newarr		$TypeTok$117211C8$
	stloc.s		18		; _managedArray$76143
	ldloc.0				; _p$
	ldc.i4.s	40		; i32 0x28
	add		
	call		??BIntPtr@System@@$$FSM?AV01@PAX@Z
	ldloc.s		18		; _managedArray$76143
	ldc.i.0		0		; i32 0x0
	ldloc.s		9		; $T76145
	call		?Copy@Marshal@InteropServices@Runtime@System@@$$FSMXVIntPtr@4@P$01AEHH@Z
	call		?get@UTF8@Encoding@Text@System@@$$FSMP$AAV234@XZ
	ldloc.s		18		; _managedArray$76143
	ldc.i.0		0		; i32 0x0
	ldloc.s		9		; $T76145
	callvirt	?GetString@Encoding@Text@System@@$$FU$AAMP$AAVString@3@P$01AEHH@Z
	stloc.s		29		; $T76146
	ldloc.1				; _vpd$
	ldloc.s		29		; $T76146
	stfld		?place@VariablePersonalData@CelikNET@@3P$AAVString@System@@$AA
; Line 237
	ldloc.0				; _p$
	ldc.i4.s	108		; i32 0x6c
	add		
	ldind.i4	
	stloc.s		8		; $T76152
	ldloc.s		8		; $T76152
	newarr		$TypeTok$117211C8$
	stloc.s		17		; _managedArray$76150
	ldloc.0				; _p$
	ldc.i4.s	72		; i32 0x48
	add		
	call		??BIntPtr@System@@$$FSM?AV01@PAX@Z
	ldloc.s		17		; _managedArray$76150
	ldc.i.0		0		; i32 0x0
	ldloc.s		8		; $T76152
	call		?Copy@Marshal@InteropServices@Runtime@System@@$$FSMXVIntPtr@4@P$01AEHH@Z
	call		?get@UTF8@Encoding@Text@System@@$$FSMP$AAV234@XZ
	ldloc.s		17		; _managedArray$76150
	ldc.i.0		0		; i32 0x0
	ldloc.s		8		; $T76152
	callvirt	?GetString@Encoding@Text@System@@$$FU$AAMP$AAVString@3@P$01AEHH@Z
	stloc.s		28		; $T76153
	ldloc.1				; _vpd$
	ldloc.s		28		; $T76153
	stfld		?street@VariablePersonalData@CelikNET@@3P$AAVString@System@@$AA
; Line 238
	ldloc.0				; _p$
	ldc.i4.s	120		; i32 0x78
	add		
	ldind.i4	
	stloc.s		7		; $T76159
	ldloc.s		7		; $T76159
	newarr		$TypeTok$117211C8$
	stloc.s		16		; _managedArray$76157
	ldloc.0				; _p$
	ldc.i4.s	112		; i32 0x70
	add		
	call		??BIntPtr@System@@$$FSM?AV01@PAX@Z
	ldloc.s		16		; _managedArray$76157
	ldc.i.0		0		; i32 0x0
	ldloc.s		7		; $T76159
	call		?Copy@Marshal@InteropServices@Runtime@System@@$$FSMXVIntPtr@4@P$01AEHH@Z
	call		?get@UTF8@Encoding@Text@System@@$$FSMP$AAV234@XZ
	ldloc.s		16		; _managedArray$76157
	ldc.i.0		0		; i32 0x0
	ldloc.s		7		; $T76159
	callvirt	?GetString@Encoding@Text@System@@$$FU$AAMP$AAVString@3@P$01AEHH@Z
	stloc.s		27		; $T76160
	ldloc.1				; _vpd$
	ldloc.s		27		; $T76160
	stfld		?houseNumber@VariablePersonalData@CelikNET@@3P$AAVString@System@@$AA
; Line 239
	ldloc.0				; _p$
	ldc.i4		128		; i32 0x80
	add		
	ldind.i4	
	stloc.s		6		; $T76166
	ldloc.s		6		; $T76166
	newarr		$TypeTok$117211C8$
	stloc.s		15		; _managedArray$76164
	ldloc.0				; _p$
	ldc.i4.s	124		; i32 0x7c
	add		
	call		??BIntPtr@System@@$$FSM?AV01@PAX@Z
	ldloc.s		15		; _managedArray$76164
	ldc.i.0		0		; i32 0x0
	ldloc.s		6		; $T76166
	call		?Copy@Marshal@InteropServices@Runtime@System@@$$FSMXVIntPtr@4@P$01AEHH@Z
	call		?get@UTF8@Encoding@Text@System@@$$FSMP$AAV234@XZ
	ldloc.s		15		; _managedArray$76164
	ldc.i.0		0		; i32 0x0
	ldloc.s		6		; $T76166
	callvirt	?GetString@Encoding@Text@System@@$$FU$AAMP$AAVString@3@P$01AEHH@Z
	stloc.s		26		; $T76167
	ldloc.1				; _vpd$
	ldloc.s		26		; $T76167
	stfld		?houseLetter@VariablePersonalData@CelikNET@@3P$AAVString@System@@$AA
; Line 240
	ldloc.0				; _p$
	ldc.i4		136		; i32 0x88
	add		
	ldind.i4	
	stloc.s		5		; $T76173
	ldloc.s		5		; $T76173
	newarr		$TypeTok$117211C8$
	stloc.s		14		; _managedArray$76171
	ldloc.0				; _p$
	ldc.i4		132		; i32 0x84
	add		
	call		??BIntPtr@System@@$$FSM?AV01@PAX@Z
	ldloc.s		14		; _managedArray$76171
	ldc.i.0		0		; i32 0x0
	ldloc.s		5		; $T76173
	call		?Copy@Marshal@InteropServices@Runtime@System@@$$FSMXVIntPtr@4@P$01AEHH@Z
	call		?get@UTF8@Encoding@Text@System@@$$FSMP$AAV234@XZ
	ldloc.s		14		; _managedArray$76171
	ldc.i.0		0		; i32 0x0
	ldloc.s		5		; $T76173
	callvirt	?GetString@Encoding@Text@System@@$$FU$AAMP$AAVString@3@P$01AEHH@Z
	stloc.s		25		; $T76174
	ldloc.1				; _vpd$
	ldloc.s		25		; $T76174
	stfld		?entrance@VariablePersonalData@CelikNET@@3P$AAVString@System@@$AA
; Line 241
	ldloc.0				; _p$
	ldc.i4		144		; i32 0x90
	add		
	ldind.i4	
	stloc.s		4		; $T76180
	ldloc.s		4		; $T76180
	newarr		$TypeTok$117211C8$
	stloc.s		13		; _managedArray$76178
	ldloc.0				; _p$
	ldc.i4		140		; i32 0x8c
	add		
	call		??BIntPtr@System@@$$FSM?AV01@PAX@Z
	ldloc.s		13		; _managedArray$76178
	ldc.i.0		0		; i32 0x0
	ldloc.s		4		; $T76180
	call		?Copy@Marshal@InteropServices@Runtime@System@@$$FSMXVIntPtr@4@P$01AEHH@Z
	call		?get@UTF8@Encoding@Text@System@@$$FSMP$AAV234@XZ
	ldloc.s		13		; _managedArray$76178
	ldc.i.0		0		; i32 0x0
	ldloc.s		4		; $T76180
	callvirt	?GetString@Encoding@Text@System@@$$FU$AAMP$AAVString@3@P$01AEHH@Z
	stloc.s		24		; $T76181
	ldloc.1				; _vpd$
	ldloc.s		24		; $T76181
	stfld		?floor@VariablePersonalData@CelikNET@@3P$AAVString@System@@$AA
; Line 242
	ldloc.0				; _p$
	ldc.i4		156		; i32 0x9c
	add		
	ldind.i4	
	stloc.3				; $T76187
	ldloc.3				; $T76187
	newarr		$TypeTok$117211C8$
	stloc.s		12		; _managedArray$76185
	ldloc.0				; _p$
	ldc.i4		148		; i32 0x94
	add		
	call		??BIntPtr@System@@$$FSM?AV01@PAX@Z
	ldloc.s		12		; _managedArray$76185
	ldc.i.0		0		; i32 0x0
	ldloc.3				; $T76187
	call		?Copy@Marshal@InteropServices@Runtime@System@@$$FSMXVIntPtr@4@P$01AEHH@Z
	call		?get@UTF8@Encoding@Text@System@@$$FSMP$AAV234@XZ
	ldloc.s		12		; _managedArray$76185
	ldc.i.0		0		; i32 0x0
	ldloc.3				; $T76187
	callvirt	?GetString@Encoding@Text@System@@$$FU$AAMP$AAVString@3@P$01AEHH@Z
	stloc.s		23		; $T76188
	ldloc.1				; _vpd$
	ldloc.s		23		; $T76188
	stfld		?apartmentNumber@VariablePersonalData@CelikNET@@3P$AAVString@System@@$AA
	leave.s		$LN25@ReadVariab
$LN26@ReadVariab:
	ldloc.2				; _l$
	callvirt	?<Dispose>@IDisposable@System@@$$FU$AAMXXZ
	endfinally	
$LN25@ReadVariab:
; Line 243
	ldloc.2				; _l$
	callvirt	?<Dispose>@IDisposable@System@@$$FU$AAMXXZ
	ldloc.1				; _vpd$
	ret		
$LN27@ReadVariab:
; Line 244
	ldnull		
	stloc.s		22		; $T76199
	leave.s		$LN28@ReadVariab
$LN29@ReadVariab:
	ldloc.2				; _l$
	callvirt	?<Dispose>@IDisposable@System@@$$FU$AAMXXZ
	endfinally	
$LN28@ReadVariab:
	ldloc.s		22		; $T76199
	ret		
 .end ?ReadVariablePersonalData@CelikInterop@CelikNET@@$$FQ$AAMP$AAUVariablePersonalData@2@XZ ; CelikNET::CelikInterop::ReadVariablePersonalData
;	.proc.end.mptr
.global	?issuingAuthority@DocumentData@CelikNET@@3P$AAVString@System@@$AA ; CelikNET::DocumentData::issuingAuthority
.global	?expiryDate@DocumentData@CelikNET@@3P$AAVString@System@@$AA ; CelikNET::DocumentData::expiryDate
.global	?issuingDate@DocumentData@CelikNET@@3P$AAVString@System@@$AA ; CelikNET::DocumentData::issuingDate
.global	?docRegNo@DocumentData@CelikNET@@3P$AAVString@System@@$AA ; CelikNET::DocumentData::docRegNo
.global	
.global	
	.bss
.local	$T76247,0
.local	?issuingAuthority@DocumentData@CelikNET@@3P$AAVString@System@@$AA,4 ; CelikNET::DocumentData::issuingAuthority
.local	?expiryDate@DocumentData@CelikNET@@3P$AAVString@System@@$AA,4 ; CelikNET::DocumentData::expiryDate
.local	?issuingDate@DocumentData@CelikNET@@3P$AAVString@System@@$AA,4 ; CelikNET::DocumentData::issuingDate
.local	?docRegNo@DocumentData@CelikNET@@3P$AAVString@System@@$AA,4 ; CelikNET::DocumentData::docRegNo
.local	$StringLiteralTok$??_C@_1DM@OJGLPBHL@?$AAR?$AAe?$AAa?$AAd?$AAD?$AAo?$AAc?$AAu?$AAm?$AAe?$AAn?$AAt?$AAD?$AAa?$AAt?$AAa?$AA?5?$AAn?$AAi?$AAj?$AAe?$AA?5?$AAi?$AAz?$AAv?$AAr?$AAs?$AAe?$AAn?$AA?$AA@,4
.local	,4
.local	,4
; Function compile flags: /Ogtp
	.text
	.comdat	any, ?ReadDocumentData@CelikInterop@CelikNET@@$$FQ$AAMP$AAUDocumentData@2@XZ
.global	?ReadDocumentData@CelikInterop@CelikNET@@$$FQ$AAMP$AAUDocumentData@2@XZ ; CelikNET::CelikInterop::ReadDocumentData
?ReadDocumentData@CelikInterop@CelikNET@@$$FQ$AAMP$AAUDocumentData@2@XZ: ; CelikNET::CelikInterop::ReadDocumentData
;	.proc.def	D:P()

; Function Header:
; max stack depth = 4
; function size = 321 bytes
; local varsig tk = 0x1100001A 
; Exception Information:
; 2 handlers, each consisting of filtered handlers

;	.local.mptr 12,"$T76244" SIG: class (token:0x7D5A59)
;	.local.mptr 13,"$T76233" SIG: string
;	.local.mptr 7,"_managedArray$76230" SIG: szarray (token:0x4ED238D)
;	.local.i4 3,"$T76232" SIG: i4
;	.local.mptr 14,"$T76226" SIG: string
;	.local.mptr 8,"_managedArray$76223" SIG: szarray (token:0x4ED238D)
;	.local.i4 4,"$T76225" SIG: i4
;	.local.mptr 15,"$T76219" SIG: string
;	.local.mptr 9,"_managedArray$76216" SIG: szarray (token:0x4ED238D)
;	.local.i4 5,"$T76218" SIG: i4
;	.local.mptr 16,"$T76212" SIG: string
;	.local.mptr 10,"_managedArray$76209" SIG: szarray (token:0x4ED238D)
;	.local.i4 6,"$T76211" SIG: i4
;	.local.mptr 1,"_dd$" SIG: class (token:0x7DE8C9)
;	.local.i4 11,"_err$" SIG: i4
;	.local.i4 0,"_p$" SIG: ptr.valueType (token:0x4E47882)
;	.local.i4 17,"$T76237" SIG: Optional C Binding Modifier(token:0x7D8095).class (token:0x7D8097)
;	.local.mptr 2,"_l$" SIG: class (token:0x4E63921)

;	.proc.beg
; Line 252
	ldnull		0		; i32 0x0
	stloc.2				; _l$
; Line 253
	call		?get@singleton@CelikInteropCleaner@CelikInterop@CelikNET@@$$FSMP$AAV234@XZ
	newobj		??$?0VCelikInteropCleaner@CelikInterop@CelikNET@@@lock@msclr@@$$FQ$AAM@P$AAVCelikInteropCleaner@CelikInterop@CelikNET@@@Z
	stloc.s		17		; $T76237
$LN14@ReadDocume:
	ldloc.s		17		; $T76237
	stloc.2				; _l$
; Line 255
	ldc.i4.s	84		; u32 0x54
	call		??2@$$FYAPAXI@Z
	stloc.0				; _p$
; Line 256
	ldloc.0				; _p$
	call		?EidReadDocumentData@@$$J14YGHPAUtagEID_DOCUMENT_DATA@@@Z
	stloc.s		11		; _err$
	ldloc.s		11		; _err$
	brfalse.s	$LN1@ReadDocume
	ldstr		$StringLiteralTok$??_C@_1DM@OJGLPBHL@?$AAR?$AAe?$AAa?$AAd?$AAD?$AAo?$AAc?$AAu?$AAm?$AAe?$AAn?$AAt?$AAD?$AAa?$AAt?$AAa?$AA?5?$AAn?$AAi?$AAj?$AAe?$AA?5?$AAi?$AAz?$AAv?$AAr?$AAs?$AAe?$AAn?$AA?$AA@
	ldloc.s		11		; _err$
	newobj		??0CelikException@CelikNET@@$$FQ$AAM@P$AAVString@System@@H@Z
	throw.u2	
$LN1@ReadDocume:
; Line 257
	newobj		??0DocumentData@CelikNET@@$$FQ$AAM@XZ
	stloc.1				; _dd$
; Line 258
	ldloc.0				; _p$
	ldc.i4.s	12		; i32 0xc
	add		
	ldind.i4	
	stloc.s		6		; $T76211
	ldloc.s		6		; $T76211
	newarr		$TypeTok$117211C8$
	stloc.s		10		; _managedArray$76209
	ldloc.0				; _p$
	call		??BIntPtr@System@@$$FSM?AV01@PAX@Z
	ldloc.s		10		; _managedArray$76209
	ldc.i.0		0		; i32 0x0
	ldloc.s		6		; $T76211
	call		?Copy@Marshal@InteropServices@Runtime@System@@$$FSMXVIntPtr@4@P$01AEHH@Z
	call		?get@UTF8@Encoding@Text@System@@$$FSMP$AAV234@XZ
	ldloc.s		10		; _managedArray$76209
	ldc.i.0		0		; i32 0x0
	ldloc.s		6		; $T76211
	callvirt	?GetString@Encoding@Text@System@@$$FU$AAMP$AAVString@3@P$01AEHH@Z
	stloc.s		16		; $T76212
	ldloc.1				; _dd$
	ldloc.s		16		; $T76212
	stfld		?docRegNo@DocumentData@CelikNET@@3P$AAVString@System@@$AA
; Line 259
	ldloc.0				; _p$
	ldc.i4.s	28		; i32 0x1c
	add		
	ldind.i4	
	stloc.s		5		; $T76218
	ldloc.s		5		; $T76218
	newarr		$TypeTok$117211C8$
	stloc.s		9		; _managedArray$76216
	ldloc.0				; _p$
	ldc.i4.s	16		; i32 0x10
	add		
	call		??BIntPtr@System@@$$FSM?AV01@PAX@Z
	ldloc.s		9		; _managedArray$76216
	ldc.i.0		0		; i32 0x0
	ldloc.s		5		; $T76218
	call		?Copy@Marshal@InteropServices@Runtime@System@@$$FSMXVIntPtr@4@P$01AEHH@Z
	call		?get@UTF8@Encoding@Text@System@@$$FSMP$AAV234@XZ
	ldloc.s		9		; _managedArray$76216
	ldc.i.0		0		; i32 0x0
	ldloc.s		5		; $T76218
	callvirt	?GetString@Encoding@Text@System@@$$FU$AAMP$AAVString@3@P$01AEHH@Z
	stloc.s		15		; $T76219
	ldloc.1				; _dd$
	ldloc.s		15		; $T76219
	stfld		?issuingDate@DocumentData@CelikNET@@3P$AAVString@System@@$AA
; Line 260
	ldloc.0				; _p$
	ldc.i4.s	44		; i32 0x2c
	add		
	ldind.i4	
	stloc.s		4		; $T76225
	ldloc.s		4		; $T76225
	newarr		$TypeTok$117211C8$
	stloc.s		8		; _managedArray$76223
	ldloc.0				; _p$
	ldc.i4.s	32		; i32 0x20
	add		
	call		??BIntPtr@System@@$$FSM?AV01@PAX@Z
	ldloc.s		8		; _managedArray$76223
	ldc.i.0		0		; i32 0x0
	ldloc.s		4		; $T76225
	call		?Copy@Marshal@InteropServices@Runtime@System@@$$FSMXVIntPtr@4@P$01AEHH@Z
	call		?get@UTF8@Encoding@Text@System@@$$FSMP$AAV234@XZ
	ldloc.s		8		; _managedArray$76223
	ldc.i.0		0		; i32 0x0
	ldloc.s		4		; $T76225
	callvirt	?GetString@Encoding@Text@System@@$$FU$AAMP$AAVString@3@P$01AEHH@Z
	stloc.s		14		; $T76226
	ldloc.1				; _dd$
	ldloc.s		14		; $T76226
	stfld		?expiryDate@DocumentData@CelikNET@@3P$AAVString@System@@$AA
; Line 261
	ldloc.0				; _p$
	ldc.i4.s	80		; i32 0x50
	add		
	ldind.i4	
	stloc.3				; $T76232
	ldloc.3				; $T76232
	newarr		$TypeTok$117211C8$
	stloc.s		7		; _managedArray$76230
	ldloc.0				; _p$
	ldc.i4.s	48		; i32 0x30
	add		
	call		??BIntPtr@System@@$$FSM?AV01@PAX@Z
	ldloc.s		7		; _managedArray$76230
	ldc.i.0		0		; i32 0x0
	ldloc.3				; $T76232
	call		?Copy@Marshal@InteropServices@Runtime@System@@$$FSMXVIntPtr@4@P$01AEHH@Z
	call		?get@UTF8@Encoding@Text@System@@$$FSMP$AAV234@XZ
	ldloc.s		7		; _managedArray$76230
	ldc.i.0		0		; i32 0x0
	ldloc.3				; $T76232
	callvirt	?GetString@Encoding@Text@System@@$$FU$AAMP$AAVString@3@P$01AEHH@Z
	stloc.s		13		; $T76233
	ldloc.1				; _dd$
	ldloc.s		13		; $T76233
	stfld		?issuingAuthority@DocumentData@CelikNET@@3P$AAVString@System@@$AA
	leave.s		$LN15@ReadDocume
$LN16@ReadDocume:
	ldloc.2				; _l$
	callvirt	?<Dispose>@IDisposable@System@@$$FU$AAMXXZ
	endfinally	
$LN15@ReadDocume:
; Line 262
	ldloc.2				; _l$
	callvirt	?<Dispose>@IDisposable@System@@$$FU$AAMXXZ
	ldloc.1				; _dd$
	ret		
$LN17@ReadDocume:
; Line 263
	ldnull		
	stloc.s		12		; $T76244
	leave.s		$LN18@ReadDocume
$LN19@ReadDocume:
	ldloc.2				; _l$
	callvirt	?<Dispose>@IDisposable@System@@$$FU$AAMXXZ
	endfinally	
$LN18@ReadDocume:
	ldloc.s		12		; $T76244
	ret		
 .end ?ReadDocumentData@CelikInterop@CelikNET@@$$FQ$AAMP$AAUDocumentData@2@XZ ; CelikNET::CelikInterop::ReadDocumentData
;	.proc.end.mptr
.global	
	.bss
.local	$T76263,0
.local	$StringLiteralTok$??_C@_1DE@IHOGDKOE@?$AAR?$AAe?$AAa?$AAd?$AAP?$AAo?$AAr?$AAt?$AAr?$AAa?$AAi?$AAt?$AA?5?$AAn?$AAi?$AAj?$AAe?$AA?5?$AAi?$AAz?$AAv?$AAr?$AAs?$AAe?$AAn?$AA?$AA@,4
.local	,4
; Function compile flags: /Ogtp
	.text
	.comdat	any, ?ReadProfileImage@CelikInterop@CelikNET@@$$FQ$AAMP$AAVBitmap@Drawing@System@@XZ
.global	?ReadProfileImage@CelikInterop@CelikNET@@$$FQ$AAMP$AAVBitmap@Drawing@System@@XZ ; CelikNET::CelikInterop::ReadProfileImage
?ReadProfileImage@CelikInterop@CelikNET@@$$FQ$AAMP$AAVBitmap@Drawing@System@@XZ: ; CelikNET::CelikInterop::ReadProfileImage
;	.proc.def	D:P()

; Function Header:
; max stack depth = 5
; function size = 131 bytes
; local varsig tk = 0x1100001C 
; Exception Information:
; 2 handlers, each consisting of filtered handlers

;	.local.mptr 4,"$T76261" SIG: class (token:0x7D5C19)
;	.local.mptr 5,"$T75394" SIG: class (token:0x4E8D811)
;	.local.mptr 2,"_managedArray$" SIG: szarray (token:0x4ED238D)
;	.local.i4 3,"_err$" SIG: i4
;	.local.i4 0,"_p$" SIG: ptr.valueType (token:0x4E3479E)
;	.local.i4 6,"$T76254" SIG: Optional C Binding Modifier(token:0x7D8095).class (token:0x7D8097)
;	.local.mptr 1,"_l$" SIG: class (token:0x4E63921)

;	.proc.beg
; Line 272
	ldnull		0		; i32 0x0
	stloc.1				; _l$
; Line 273
	call		?get@singleton@CelikInteropCleaner@CelikInterop@CelikNET@@$$FSMP$AAV234@XZ
	newobj		??$?0VCelikInteropCleaner@CelikInterop@CelikNET@@@lock@msclr@@$$FQ$AAM@P$AAVCelikInteropCleaner@CelikInterop@CelikNET@@@Z
	stloc.s		6		; $T76254
$LN6@ReadProfil:
	ldloc.s		6		; $T76254
	stloc.1				; _l$
; Line 276
	ldc.i4		7704		; u32 0x1e18
	call		??2@$$FYAPAXI@Z
	stloc.0				; _p$
; Line 277
	ldloc.0				; _p$
	call		?EidReadPortrait@@$$J14YGHPAUtagEID_PORTRAIT@@@Z
	stloc.3				; _err$
	ldloc.3				; _err$
	brfalse.s	$LN1@ReadProfil
	ldstr		$StringLiteralTok$??_C@_1DE@IHOGDKOE@?$AAR?$AAe?$AAa?$AAd?$AAP?$AAo?$AAr?$AAt?$AAr?$AAa?$AAi?$AAt?$AA?5?$AAn?$AAi?$AAj?$AAe?$AA?5?$AAi?$AAz?$AAv?$AAr?$AAs?$AAe?$AAn?$AA?$AA@
	ldloc.3				; _err$
	newobj		??0CelikException@CelikNET@@$$FQ$AAM@P$AAVString@System@@H@Z
	throw.u2	
$LN1@ReadProfil:
; Line 279
	ldloc.0				; _p$
	ldc.i4		7700		; i32 0x1e14
	add		
	ldind.i4	
	newarr		$TypeTok$117211C8$
	stloc.2				; _managedArray$
; Line 280
	ldloc.0				; _p$
	call		??BIntPtr@System@@$$FSM?AV01@PAX@Z
	ldloc.2				; _managedArray$
	ldc.i.0		0		; i32 0x0
	ldloc.0				; _p$
	ldc.i4		7700		; i32 0x1e14
	add		
	ldind.i4	
	call		?Copy@Marshal@InteropServices@Runtime@System@@$$FSMXVIntPtr@4@P$01AEHH@Z
; Line 282
	ldloc.2				; _managedArray$
	newobj		??0MemoryStream@IO@System@@$$FQ$AAM@P$01AE@Z
; Line 283
	newobj		??0Bitmap@Drawing@System@@$$FQ$AAM@P$AAVStream@IO@2@@Z
	stloc.s		5		; $T75394
	leave.s		$LN7@ReadProfil
$LN8@ReadProfil:
	ldloc.1				; _l$
	callvirt	?<Dispose>@IDisposable@System@@$$FU$AAMXXZ
	endfinally	
$LN7@ReadProfil:
	ldloc.1				; _l$
	callvirt	?<Dispose>@IDisposable@System@@$$FU$AAMXXZ
	ldloc.s		5		; $T75394
	ret		
$LN9@ReadProfil:
; Line 284
	ldnull		
	stloc.s		4		; $T76261
	leave.s		$LN10@ReadProfil
$LN11@ReadProfil:
	ldloc.1				; _l$
	callvirt	?<Dispose>@IDisposable@System@@$$FU$AAMXXZ
	endfinally	
$LN10@ReadProfil:
	ldloc.s		4		; $T76261
	ret		
 .end ?ReadProfileImage@CelikInterop@CelikNET@@$$FQ$AAMP$AAVBitmap@Drawing@System@@XZ ; CelikNET::CelikInterop::ReadProfileImage
;	.proc.end.mptr
; Function compile flags: /Ogtp
	.text
	.comdat	any, ?<Dispose>@CelikInteropCleaner@CelikInterop@CelikNET@@$$FU$AAMXXZ
.global	?<Dispose>@CelikInteropCleaner@CelikInterop@CelikNET@@$$FU$AAMXXZ ; CelikNET::CelikInterop::CelikInteropCleaner::<Dispose>
?<Dispose>@CelikInteropCleaner@CelikInterop@CelikNET@@$$FU$AAMXXZ: ; CelikNET::CelikInterop::CelikInteropCleaner::<Dispose>
;	.proc.def	D:V()

; Function Header:
; max stack depth = 2
; function size = 14 bytes
; local varsig tk = 0x0 
; Exception Information:
; 0 handlers, each consisting of filtered handlers

;	.formal.mptr 0,"_this$" SIG: Optional C Binding Modifier(token:0x4E5D13D).class (token:0x4E5D13F)

;	.proc.beg
	ldarg.0				; _this$
	ldc.i.1		1		; u8 0x1
	callvirt	?<Dispose>@CelikInteropCleaner@CelikInterop@CelikNET@@$$FM$AAMX_N@Z
	ldarg.0				; _this$
	call		?SuppressFinalize@GC@System@@$$FSMXP$AAVObject@2@@Z
	ret		
 .end ?<Dispose>@CelikInteropCleaner@CelikInterop@CelikNET@@$$FU$AAMXXZ ; CelikNET::CelikInterop::CelikInteropCleaner::<Dispose>
;	.proc.end.void
; Function compile flags: /Ogtp
	.text
	.comdat	any, ?<Dispose>@CelikInterop@CelikNET@@$$FU$AAMXXZ
.global	?<Dispose>@CelikInterop@CelikNET@@$$FU$AAMXXZ	; CelikNET::CelikInterop::<Dispose>
?<Dispose>@CelikInterop@CelikNET@@$$FU$AAMXXZ:		; CelikNET::CelikInterop::<Dispose>
;	.proc.def	D:V()

; Function Header:
; max stack depth = 2
; function size = 14 bytes
; local varsig tk = 0x0 
; Exception Information:
; 0 handlers, each consisting of filtered handlers

;	.formal.mptr 0,"_this$" SIG: Optional C Binding Modifier(token:0x4E2909D).class (token:0x4E2909F)

;	.proc.beg
	ldarg.0				; _this$
	ldc.i.1		1		; u8 0x1
	callvirt	?<Dispose>@CelikInterop@CelikNET@@$$FM$AAMX_N@Z
	ldarg.0				; _this$
	call		?SuppressFinalize@GC@System@@$$FSMXP$AAVObject@2@@Z
	ret		
 .end ?<Dispose>@CelikInterop@CelikNET@@$$FU$AAMXXZ	; CelikNET::CelikInterop::<Dispose>
;	.proc.end.void
; Function compile flags: /Ogtp
	.text
	.comdat	any, ?<Dispose>@lock@msclr@@$$FU$AAMXXZ
.global	?<Dispose>@lock@msclr@@$$FU$AAMXXZ		; msclr::lock::<Dispose>
?<Dispose>@lock@msclr@@$$FU$AAMXXZ:			; msclr::lock::<Dispose>
;	.proc.def	D:V()

; Function Header:
; max stack depth = 2
; function size = 14 bytes
; local varsig tk = 0x0 
; Exception Information:
; 0 handlers, each consisting of filtered handlers

;	.formal.mptr 0,"_this$" SIG: Optional C Binding Modifier(token:0x4FBF1D1).class (token:0x4FBF1D3)

;	.proc.beg
	ldarg.0				; _this$
	ldc.i.1		1		; u8 0x1
	callvirt	?<Dispose>@lock@msclr@@$$FM$AAMX_N@Z
	ldarg.0				; _this$
	call		?SuppressFinalize@GC@System@@$$FSMXP$AAVObject@2@@Z
	ret		
 .end ?<Dispose>@lock@msclr@@$$FU$AAMXXZ		; msclr::lock::<Dispose>
;	.proc.end.void
